
test-app.img:     file format elf32-avr
test-app.img
architecture: avr:6, flags 0x00000112:
EXEC_P, HAS_SYMS, D_PAGED
start address 0x00000000

Program Header:
    LOAD off    0x000000b4 vaddr 0x00000000 paddr 0x00000000 align 2**1
         filesz 0x00015e00 memsz 0x00015e00 flags r-x
    LOAD off    0x00015eb4 vaddr 0x00800200 paddr 0x00015e00 align 2**0
         filesz 0x000003c0 memsz 0x000003c0 flags rw-
    LOAD off    0x00016274 vaddr 0x008005c0 paddr 0x008005c0 align 2**0
         filesz 0x00000000 memsz 0x000001df flags rw-
    LOAD off    0x00016274 vaddr 0x008007a0 paddr 0x008007a0 align 2**0
         filesz 0x00000000 memsz 0x00000800 flags rw-

Sections:
Idx Name          Size      VMA       LMA       File off  Algn
  0 .text         00015e00  00000000  00000000  000000b4  2**1
                  CONTENTS, ALLOC, LOAD, READONLY, CODE
  1 .data         000003c0  00800200  00015e00  00015eb4  2**0
                  CONTENTS, ALLOC, LOAD, DATA
  2 .bss          000001df  008005c0  008005c0  00016274  2**0
                  ALLOC
  3 .noinit       00000800  008007a0  008007a0  00016274  2**0
                  ALLOC
  4 .comment      00000011  00000000  00000000  00016274  2**0
                  CONTENTS, READONLY
SYMBOL TABLE:
00000000 l    d  .text	00000000 .text
00800200 l    d  .data	00000000 .data
008005c0 l    d  .bss	00000000 .bss
008007a0 l    d  .noinit	00000000 .noinit
00000000 l    d  .comment	00000000 .comment
00000000 l    df *ABS*	00000000 arch/avr/kernel/start.o
00015dfc l       .text	00000000 __end_prog
00000000 l    df *ABS*	00000000 atmega-gpio.c
0000003e l       *ABS*	00000000 __SP_H__
0000003d l       *ABS*	00000000 __SP_L__
0000003f l       *ABS*	00000000 __SREG__
0000003b l       *ABS*	00000000 __RAMPZ__
00000000 l       *ABS*	00000000 __tmp_reg__
00000001 l       *ABS*	00000000 __zero_reg__
0001372a l     F .text	00000018 atmega_pin_to_ddr.isra.0
00000166 l     O .text	00000016 atmega_gpio_ddrs
00013742 l     F .text	0000004a atmega_dir_in
0001378c l     F .text	00000054 atmega_get_dir
000137e0 l     F .text	00000060 atmega_get_pin
0000017c l     O .text	00000016 atmega_gpio_pins
00013840 l     F .text	00000060 atmega_set_pin
00000192 l     O .text	00000016 atmega_gpio_ports
000138a0 l     F .text	0000007c atmega_dir_out
008004a5 l     O .data	0000000f atmega_gpio_chip
000005f6 l     F .text	00000004 __atmega_init_gpio
00000000 l    df *ABS*	00000000 _clear_bss.o
00000580 l       .text	00000000 .do_clear_bss_start
0000057e l       .text	00000000 .do_clear_bss_loop
00000000 l    df *ABS*	00000000 arch/avr/kernel/devinit.o
000005fe l       .text	00000000 dev_init_exit
00000000 l    df *ABS*	00000000 init.c
0000003e l       *ABS*	00000000 __SP_H__
0000003d l       *ABS*	00000000 __SP_L__
0000003f l       *ABS*	00000000 __SREG__
0000003b l       *ABS*	00000000 __RAMPZ__
00000000 l       *ABS*	00000000 __tmp_reg__
00000001 l       *ABS*	00000000 __zero_reg__
00000000 l    df *ABS*	00000000 mem.c
0000003e l       *ABS*	00000000 __SP_H__
0000003d l       *ABS*	00000000 __SP_L__
0000003f l       *ABS*	00000000 __SREG__
0000003b l       *ABS*	00000000 __RAMPZ__
00000000 l       *ABS*	00000000 __tmp_reg__
00000001 l       *ABS*	00000000 __zero_reg__
00000000 l    df *ABS*	00000000 arch/avr/kernel/delay.o
00000000 l       *ABS*	00000000 __tmp_reg__
00000001 l       *ABS*	00000000 __zero_reg__
00000648 l       .text	00000000 .TOP_LOOP
00000000 l    df *ABS*	00000000 adc.c
0000003e l       *ABS*	00000000 __SP_H__
0000003d l       *ABS*	00000000 __SP_L__
0000003f l       *ABS*	00000000 __SREG__
0000003b l       *ABS*	00000000 __RAMPZ__
00000000 l       *ABS*	00000000 __tmp_reg__
00000001 l       *ABS*	00000000 __zero_reg__
00000000 l    df *ABS*	00000000 i2c.c
0000003e l       *ABS*	00000000 __SP_H__
0000003d l       *ABS*	00000000 __SP_L__
0000003f l       *ABS*	00000000 __SREG__
0000003b l       *ABS*	00000000 __RAMPZ__
00000000 l       *ABS*	00000000 __tmp_reg__
00000001 l       *ABS*	00000000 __zero_reg__
00000000 l    df *ABS*	00000000 spi.c
0000003e l       *ABS*	00000000 __SP_H__
0000003d l       *ABS*	00000000 __SP_L__
0000003f l       *ABS*	00000000 __SREG__
0000003b l       *ABS*	00000000 __RAMPZ__
00000000 l       *ABS*	00000000 __tmp_reg__
00000001 l       *ABS*	00000000 __zero_reg__
00000000 l    df *ABS*	00000000 usart.c
0000003e l       *ABS*	00000000 __SP_H__
0000003d l       *ABS*	00000000 __SP_L__
0000003f l       *ABS*	00000000 __SREG__
0000003b l       *ABS*	00000000 __RAMPZ__
00000000 l       *ABS*	00000000 __tmp_reg__
00000001 l       *ABS*	00000000 __zero_reg__
00000000 l    df *ABS*	00000000 irq.c
0000003e l       *ABS*	00000000 __SP_H__
0000003d l       *ABS*	00000000 __SP_L__
0000003f l       *ABS*	00000000 __SREG__
0000003b l       *ABS*	00000000 __RAMPZ__
00000000 l       *ABS*	00000000 __tmp_reg__
00000001 l       *ABS*	00000000 __zero_reg__
00000000 l    df *ABS*	00000000 timer.c
0000003e l       *ABS*	00000000 __SP_H__
0000003d l       *ABS*	00000000 __SP_L__
0000003f l       *ABS*	00000000 __SREG__
0000003b l       *ABS*	00000000 __RAMPZ__
00000000 l       *ABS*	00000000 __tmp_reg__
00000001 l       *ABS*	00000000 __zero_reg__
00000908 l     F .text	00000006 avr_sysclk_enable
00800200 l     O .data	00000021 sysclk
00000914 l     F .text	00000068 avr_timer_init
000005da l     F .text	00000004 __avr_timer_init
00000000 l    df *ABS*	00000000 sched.c
0000003e l       *ABS*	00000000 __SP_H__
0000003d l       *ABS*	00000000 __SP_L__
0000003f l       *ABS*	00000000 __SREG__
0000003b l       *ABS*	00000000 __RAMPZ__
00000000 l       *ABS*	00000000 __tmp_reg__
00000001 l       *ABS*	00000000 __zero_reg__
00000000 l    df *ABS*	00000000 power.c
0000003e l       *ABS*	00000000 __SP_H__
0000003d l       *ABS*	00000000 __SP_L__
0000003f l       *ABS*	00000000 __SREG__
0000003b l       *ABS*	00000000 __RAMPZ__
00000000 l       *ABS*	00000000 __tmp_reg__
00000001 l       *ABS*	00000000 __zero_reg__
00800258 l     O .data	00000007 CSWTCH.2
00000000 l    df *ABS*	00000000 hrtimer.c
0000003e l       *ABS*	00000000 __SP_H__
0000003d l       *ABS*	00000000 __SP_L__
0000003f l       *ABS*	00000000 __SREG__
0000003b l       *ABS*	00000000 __RAMPZ__
00000000 l       *ABS*	00000000 __tmp_reg__
00000001 l       *ABS*	00000000 __zero_reg__
00000b3a l     F .text	00000078 avr_hrtimer_init
00800221 l     O .data	00000023 avr_hrtimer_src
000005de l     F .text	00000004 __avr_hrtimer_init
00000000 l    df *ABS*	00000000 cpu.c
0000003e l       *ABS*	00000000 __SP_H__
0000003d l       *ABS*	00000000 __SP_L__
0000003f l       *ABS*	00000000 __SREG__
0000003b l       *ABS*	00000000 __RAMPZ__
00000000 l       *ABS*	00000000 __tmp_reg__
00000001 l       *ABS*	00000000 __zero_reg__
00800244 l     O .data	0000000c avr_irq_chip
00000000 l    df *ABS*	00000000 
00000000 l    df *ABS*	00000000 init.c
0000003e l       *ABS*	00000000 __SP_H__
0000003d l       *ABS*	00000000 __SP_L__
0000003f l       *ABS*	00000000 __SREG__
0000003b l       *ABS*	00000000 __RAMPZ__
00000000 l       *ABS*	00000000 __tmp_reg__
00000001 l       *ABS*	00000000 __zero_reg__
00000000 l    df *ABS*	00000000 sys.c
0000003e l       *ABS*	00000000 __SP_H__
0000003d l       *ABS*	00000000 __SP_L__
0000003f l       *ABS*	00000000 __SREG__
0000003b l       *ABS*	00000000 __RAMPZ__
00000000 l       *ABS*	00000000 __tmp_reg__
00000001 l       *ABS*	00000000 __zero_reg__
00000000 l    df *ABS*	00000000 delay.c
0000003e l       *ABS*	00000000 __SP_H__
0000003d l       *ABS*	00000000 __SP_L__
0000003f l       *ABS*	00000000 __SREG__
0000003b l       *ABS*	00000000 __RAMPZ__
00000000 l       *ABS*	00000000 __tmp_reg__
00000001 l       *ABS*	00000000 __zero_reg__
00000000 l    df *ABS*	00000000 panic.c
0000003e l       *ABS*	00000000 __SP_H__
0000003d l       *ABS*	00000000 __SP_L__
0000003f l       *ABS*	00000000 __SREG__
0000003b l       *ABS*	00000000 __RAMPZ__
00000000 l       *ABS*	00000000 __tmp_reg__
00000001 l       *ABS*	00000000 __zero_reg__
00000000 l    df *ABS*	00000000 cpu.c
0000003e l       *ABS*	00000000 __SP_H__
0000003d l       *ABS*	00000000 __SP_L__
0000003f l       *ABS*	00000000 __SREG__
0000003b l       *ABS*	00000000 __RAMPZ__
00000000 l       *ABS*	00000000 __tmp_reg__
00000001 l       *ABS*	00000000 __zero_reg__
00800714 l     O .bss	00000004 cpu_flags
00000000 l    df *ABS*	00000000 spinlock.c
0000003e l       *ABS*	00000000 __SP_H__
0000003d l       *ABS*	00000000 __SP_L__
0000003f l       *ABS*	00000000 __SREG__
0000003b l       *ABS*	00000000 __RAMPZ__
00000000 l       *ABS*	00000000 __tmp_reg__
00000001 l       *ABS*	00000000 __zero_reg__
00000000 l    df *ABS*	00000000 panic_P.c
0000003e l       *ABS*	00000000 __SP_H__
0000003d l       *ABS*	00000000 __SP_L__
0000003f l       *ABS*	00000000 __SREG__
0000003b l       *ABS*	00000000 __RAMPZ__
00000000 l       *ABS*	00000000 __tmp_reg__
00000001 l       *ABS*	00000000 __zero_reg__
00000000 l    df *ABS*	00000000 cplusplus.cpp
0000003e l       *ABS*	00000000 __SP_H__
0000003d l       *ABS*	00000000 __SP_L__
0000003f l       *ABS*	00000000 __SREG__
0000003b l       *ABS*	00000000 __RAMPZ__
00000000 l       *ABS*	00000000 __tmp_reg__
00000001 l       *ABS*	00000000 __zero_reg__
00000000 l    df *ABS*	00000000 float.c
0000003e l       *ABS*	00000000 __SP_H__
0000003d l       *ABS*	00000000 __SP_L__
0000003f l       *ABS*	00000000 __SREG__
0000003b l       *ABS*	00000000 __RAMPZ__
00000000 l       *ABS*	00000000 __tmp_reg__
00000001 l       *ABS*	00000000 __zero_reg__
00000000 l    df *ABS*	00000000 heap.c
0000003e l       *ABS*	00000000 __SP_H__
0000003d l       *ABS*	00000000 __SP_L__
0000003f l       *ABS*	00000000 __SREG__
0000003b l       *ABS*	00000000 __RAMPZ__
00000000 l       *ABS*	00000000 __tmp_reg__
00000001 l       *ABS*	00000000 __zero_reg__
000042cc l     F .text	0000006e heap_unlinkFromFreelist
008005c2 l     O .bss	0000003f pmHeap
0000433a l     F .text	000000cc heap_linkToFreelist
00004406 l     F .text	000000d6 heap_getChunkImpl
000044dc l     F .text	00000370 heap_gcMarkObj
00000000 l    df *ABS*	00000000 interp.c
0000003e l       *ABS*	00000000 __SP_H__
0000003d l       *ABS*	00000000 __SP_L__
0000003f l       *ABS*	00000000 __SREG__
0000003b l       *ABS*	00000000 __RAMPZ__
00000000 l       *ABS*	00000000 __tmp_reg__
00000001 l       *ABS*	00000000 __zero_reg__
00800601 l     O .bss	00000001 threadIndex.2223
00000000 l    df *ABS*	00000000 object.c
0000003e l       *ABS*	00000000 __SP_H__
0000003d l       *ABS*	00000000 __SP_L__
0000003f l       *ABS*	00000000 __SREG__
0000003b l       *ABS*	00000000 __RAMPZ__
00000000 l       *ABS*	00000000 __tmp_reg__
00000001 l       *ABS*	00000000 __zero_reg__
00000000 l    df *ABS*	00000000 platform.c
0000003e l       *ABS*	00000000 __SP_H__
0000003d l       *ABS*	00000000 __SP_L__
0000003f l       *ABS*	00000000 __SREG__
0000003b l       *ABS*	00000000 __RAMPZ__
00000000 l       *ABS*	00000000 __tmp_reg__
00000001 l       *ABS*	00000000 __zero_reg__
0000cc1e l     F .text	0000001c platform_timer_handle
00800279 l     O .data	00000004 interval
0080060e l     O .bss	00000002 timer
00000ecd l     O .text	00000024 __c.2655
00000eab l     O .text	00000022 __c.2657
00000e98 l     O .text	00000013 __c.2659
00000e7b l     O .text	0000001d __c.2665
00000ef1 l     O .text	00000024 exnlookup
00000e78 l     O .text	00000003 __c.2672
00000e66 l     O .text	00000012 __c.2674
00000e58 l     O .text	0000000e __c.2676
00000fdb l     O .text	00000036 fnlookup
00000e54 l     O .text	00000004 __c.2681
00000e40 l     O .text	00000014 __c.2683
00000e3c l     O .text	00000004 __c.2685
00000fd1 l     O .text	0000000a exnstr_00
00000fc6 l     O .text	0000000b exnstr_01
00000fbe l     O .text	00000008 exnstr_02
00000fac l     O .text	00000012 exnstr_03
00000f9d l     O .text	0000000f exnstr_04
00000f8e l     O .text	0000000f exnstr_05
00000f82 l     O .text	0000000c exnstr_06
00000f77 l     O .text	0000000b exnstr_07
00000f6e l     O .text	00000009 exnstr_08
00000f62 l     O .text	0000000c exnstr_09
00000f58 l     O .text	0000000a exnstr_10
00000f4c l     O .text	0000000c exnstr_11
00000f40 l     O .text	0000000c exnstr_12
00000f36 l     O .text	0000000a exnstr_13
00000f2b l     O .text	0000000b exnstr_14
00000f1d l     O .text	0000000e exnstr_15
00000f15 l     O .text	00000008 exnstr_16
000010e1 l     O .text	0000000a fnstr_00
000010d7 l     O .text	0000000a fnstr_01
000010d0 l     O .text	00000007 fnstr_02
000010c8 l     O .text	00000008 fnstr_03
000010c1 l     O .text	00000007 fnstr_04
000010b8 l     O .text	00000009 fnstr_05
000010b1 l     O .text	00000007 fnstr_06
000010ab l     O .text	00000006 fnstr_07
000010a5 l     O .text	00000006 fnstr_08
0000109c l     O .text	00000009 fnstr_09
0000108d l     O .text	0000000f fnstr_10
00001086 l     O .text	00000007 fnstr_11
0000107f l     O .text	00000007 fnstr_12
00001079 l     O .text	00000006 fnstr_13
00001070 l     O .text	00000009 fnstr_14
0000106a l     O .text	00000006 fnstr_15
00001060 l     O .text	0000000a fnstr_16
0000105a l     O .text	00000006 fnstr_17
00001051 l     O .text	00000009 fnstr_18
00001049 l     O .text	00000008 fnstr_19
00001043 l     O .text	00000006 fnstr_20
0000103e l     O .text	00000005 fnstr_21
00001035 l     O .text	00000009 fnstr_22
0000102d l     O .text	00000008 fnstr_23
00001025 l     O .text	00000008 fnstr_24
00001019 l     O .text	0000000c fnstr_25
00001011 l     O .text	00000008 fnstr_26
00000000 l    df *ABS*	00000000 pylib-img.c
0000003e l       *ABS*	00000000 __SP_H__
0000003d l       *ABS*	00000000 __SP_L__
0000003f l       *ABS*	00000000 __SREG__
0000003b l       *ABS*	00000000 __RAMPZ__
00000000 l       *ABS*	00000000 __tmp_reg__
00000001 l       *ABS*	00000000 __zero_reg__
00000000 l    df *ABS*	00000000 bytearray.c
0000003e l       *ABS*	00000000 __SP_H__
0000003d l       *ABS*	00000000 __SP_L__
0000003f l       *ABS*	00000000 __SREG__
0000003b l       *ABS*	00000000 __RAMPZ__
00000000 l       *ABS*	00000000 __tmp_reg__
00000001 l       *ABS*	00000000 __zero_reg__
00000000 l    df *ABS*	00000000 class.c
0000003e l       *ABS*	00000000 __SP_H__
0000003d l       *ABS*	00000000 __SP_L__
0000003f l       *ABS*	00000000 __SREG__
0000003b l       *ABS*	00000000 __RAMPZ__
00000000 l       *ABS*	00000000 __tmp_reg__
00000001 l       *ABS*	00000000 __zero_reg__
00000000 l    df *ABS*	00000000 codeobj.c
0000003e l       *ABS*	00000000 __SP_H__
0000003d l       *ABS*	00000000 __SP_L__
0000003f l       *ABS*	00000000 __SREG__
0000003b l       *ABS*	00000000 __RAMPZ__
00000000 l       *ABS*	00000000 __tmp_reg__
00000001 l       *ABS*	00000000 __zero_reg__
00000000 l    df *ABS*	00000000 dict.c
0000003e l       *ABS*	00000000 __SP_H__
0000003d l       *ABS*	00000000 __SP_L__
0000003f l       *ABS*	00000000 __SREG__
0000003b l       *ABS*	00000000 __RAMPZ__
00000000 l       *ABS*	00000000 __tmp_reg__
00000001 l       *ABS*	00000000 __zero_reg__
00000000 l    df *ABS*	00000000 frame.c
0000003e l       *ABS*	00000000 __SP_H__
0000003d l       *ABS*	00000000 __SP_L__
0000003f l       *ABS*	00000000 __SREG__
0000003b l       *ABS*	00000000 __RAMPZ__
00000000 l       *ABS*	00000000 __tmp_reg__
00000001 l       *ABS*	00000000 __zero_reg__
00000000 l    df *ABS*	00000000 func.c
0000003e l       *ABS*	00000000 __SP_H__
0000003d l       *ABS*	00000000 __SP_L__
0000003f l       *ABS*	00000000 __SREG__
0000003b l       *ABS*	00000000 __RAMPZ__
00000000 l       *ABS*	00000000 __tmp_reg__
00000001 l       *ABS*	00000000 __zero_reg__
00000000 l    df *ABS*	00000000 global.c
0000003e l       *ABS*	00000000 __SP_H__
0000003d l       *ABS*	00000000 __SP_L__
0000003f l       *ABS*	00000000 __SREG__
0000003b l       *ABS*	00000000 __RAMPZ__
00000000 l       *ABS*	00000000 __tmp_reg__
00000001 l       *ABS*	00000000 __zero_reg__
00000000 l    df *ABS*	00000000 img.c
0000003e l       *ABS*	00000000 __SP_H__
0000003d l       *ABS*	00000000 __SP_L__
0000003f l       *ABS*	00000000 __SREG__
0000003b l       *ABS*	00000000 __RAMPZ__
00000000 l       *ABS*	00000000 __tmp_reg__
00000001 l       *ABS*	00000000 __zero_reg__
00000000 l    df *ABS*	00000000 int.c
0000003e l       *ABS*	00000000 __SP_H__
0000003d l       *ABS*	00000000 __SP_L__
0000003f l       *ABS*	00000000 __SREG__
0000003b l       *ABS*	00000000 __RAMPZ__
00000000 l       *ABS*	00000000 __tmp_reg__
00000001 l       *ABS*	00000000 __zero_reg__
00000000 l    df *ABS*	00000000 list.c
0000003e l       *ABS*	00000000 __SP_H__
0000003d l       *ABS*	00000000 __SP_L__
0000003f l       *ABS*	00000000 __SREG__
0000003b l       *ABS*	00000000 __RAMPZ__
00000000 l       *ABS*	00000000 __tmp_reg__
00000001 l       *ABS*	00000000 __zero_reg__
00000000 l    df *ABS*	00000000 mem.c
0000003e l       *ABS*	00000000 __SP_H__
0000003d l       *ABS*	00000000 __SP_L__
0000003f l       *ABS*	00000000 __SREG__
0000003b l       *ABS*	00000000 __RAMPZ__
00000000 l       *ABS*	00000000 __tmp_reg__
00000001 l       *ABS*	00000000 __zero_reg__
00000000 l    df *ABS*	00000000 module.c
0000003e l       *ABS*	00000000 __SP_H__
0000003d l       *ABS*	00000000 __SP_L__
0000003f l       *ABS*	00000000 __SREG__
0000003b l       *ABS*	00000000 __RAMPZ__
00000000 l       *ABS*	00000000 __tmp_reg__
00000001 l       *ABS*	00000000 __zero_reg__
00000000 l    df *ABS*	00000000 pm.c
0000003e l       *ABS*	00000000 __SP_H__
0000003d l       *ABS*	00000000 __SP_L__
0000003f l       *ABS*	00000000 __SREG__
0000003b l       *ABS*	00000000 __RAMPZ__
00000000 l       *ABS*	00000000 __tmp_reg__
00000001 l       *ABS*	00000000 __zero_reg__
00800602 l     O .bss	00000002 usecResidual.2055
00000000 l    df *ABS*	00000000 seglist.c
0000003e l       *ABS*	00000000 __SP_H__
0000003d l       *ABS*	00000000 __SP_L__
0000003f l       *ABS*	00000000 __SREG__
0000003b l       *ABS*	00000000 __RAMPZ__
00000000 l       *ABS*	00000000 __tmp_reg__
00000001 l       *ABS*	00000000 __zero_reg__
00000000 l    df *ABS*	00000000 seq.c
0000003e l       *ABS*	00000000 __SP_H__
0000003d l       *ABS*	00000000 __SP_L__
0000003f l       *ABS*	00000000 __SREG__
0000003b l       *ABS*	00000000 __RAMPZ__
00000000 l       *ABS*	00000000 __tmp_reg__
00000001 l       *ABS*	00000000 __zero_reg__
00000000 l    df *ABS*	00000000 sli.c
0000003e l       *ABS*	00000000 __SP_H__
0000003d l       *ABS*	00000000 __SP_L__
0000003f l       *ABS*	00000000 __SREG__
0000003b l       *ABS*	00000000 __RAMPZ__
00000000 l       *ABS*	00000000 __tmp_reg__
00000001 l       *ABS*	00000000 __zero_reg__
00000000 l    df *ABS*	00000000 strobj.c
0000003e l       *ABS*	00000000 __SP_H__
0000003d l       *ABS*	00000000 __SP_L__
0000003f l       *ABS*	00000000 __SREG__
0000003b l       *ABS*	00000000 __RAMPZ__
00000000 l       *ABS*	00000000 __tmp_reg__
00000001 l       *ABS*	00000000 __zero_reg__
0080060c l     O .bss	00000002 pstrcache
00000000 l    df *ABS*	00000000 thread.c
0000003e l       *ABS*	00000000 __SP_H__
0000003d l       *ABS*	00000000 __SP_L__
0000003f l       *ABS*	00000000 __SREG__
0000003b l       *ABS*	00000000 __RAMPZ__
00000000 l       *ABS*	00000000 __tmp_reg__
00000001 l       *ABS*	00000000 __zero_reg__
00000000 l    df *ABS*	00000000 tuple.c
0000003e l       *ABS*	00000000 __SP_H__
0000003d l       *ABS*	00000000 __SP_L__
0000003f l       *ABS*	00000000 __SREG__
0000003b l       *ABS*	00000000 __RAMPZ__
00000000 l       *ABS*	00000000 __tmp_reg__
00000001 l       *ABS*	00000000 __zero_reg__
00000000 l    df *ABS*	00000000 pylib.c
0000003e l       *ABS*	00000000 __SP_H__
0000003d l       *ABS*	00000000 __SP_L__
0000003f l       *ABS*	00000000 __SREG__
0000003b l       *ABS*	00000000 __RAMPZ__
00000000 l       *ABS*	00000000 __tmp_reg__
00000001 l       *ABS*	00000000 __zero_reg__
00000000 l    df *ABS*	00000000 
00000000 l    df *ABS*	00000000 
00000000 l    df *ABS*	00000000 irq.c
0000003e l       *ABS*	00000000 __SP_H__
0000003d l       *ABS*	00000000 __SP_L__
0000003f l       *ABS*	00000000 __SREG__
0000003b l       *ABS*	00000000 __RAMPZ__
00000000 l       *ABS*	00000000 __tmp_reg__
00000001 l       *ABS*	00000000 __zero_reg__
00800610 l     O .bss	00000072 arch_irqs
00000000 l    df *ABS*	00000000 irqchip.c
0000003e l       *ABS*	00000000 __SP_H__
0000003d l       *ABS*	00000000 __SP_L__
0000003f l       *ABS*	00000000 __SREG__
0000003b l       *ABS*	00000000 __RAMPZ__
00000000 l       *ABS*	00000000 __tmp_reg__
00000001 l       *ABS*	00000000 __zero_reg__
00000000 l    df *ABS*	00000000 handle.c
0000003e l       *ABS*	00000000 __SP_H__
0000003d l       *ABS*	00000000 __SP_L__
0000003f l       *ABS*	00000000 __SREG__
0000003b l       *ABS*	00000000 __RAMPZ__
00000000 l       *ABS*	00000000 __tmp_reg__
00000001 l       *ABS*	00000000 __zero_reg__
00000000 l    df *ABS*	00000000 
00000000 l    df *ABS*	00000000 clocksource.c
0000003e l       *ABS*	00000000 __SP_H__
0000003d l       *ABS*	00000000 __SP_L__
0000003f l       *ABS*	00000000 __SREG__
0000003b l       *ABS*	00000000 __RAMPZ__
00000000 l       *ABS*	00000000 __tmp_reg__
00000001 l       *ABS*	00000000 __zero_reg__
00800379 l     O .data	00000004 sources
00000000 l    df *ABS*	00000000 timer.c
0000003e l       *ABS*	00000000 __SP_H__
0000003d l       *ABS*	00000000 __SP_L__
0000003f l       *ABS*	00000000 __SREG__
0000003b l       *ABS*	00000000 __RAMPZ__
00000000 l       *ABS*	00000000 __tmp_reg__
00000001 l       *ABS*	00000000 __zero_reg__
00000000 l    df *ABS*	00000000 time.c
0000003e l       *ABS*	00000000 __SP_H__
0000003d l       *ABS*	00000000 __SP_L__
0000003f l       *ABS*	00000000 __SREG__
0000003b l       *ABS*	00000000 __RAMPZ__
00000000 l       *ABS*	00000000 __tmp_reg__
00000001 l       *ABS*	00000000 __zero_reg__
0000f146 l     F .text	00000038 is_leap_year
0000f17e l     F .text	0000012c cvtdate.constprop.0
00800385 l     O .data	00000008 dststart
0080037d l     O .data	00000008 dstend
00800684 l     O .bss	00000008 sys_time
00800682 l     O .bss	00000002 milis.1412
00000000 l    df *ABS*	00000000 systick.c
0000003e l       *ABS*	00000000 __SP_H__
0000003d l       *ABS*	00000000 __SP_L__
0000003f l       *ABS*	00000000 __SREG__
0000003b l       *ABS*	00000000 __RAMPZ__
00000000 l       *ABS*	00000000 __tmp_reg__
00000001 l       *ABS*	00000000 __zero_reg__
0000f586 l     F .text	00000074 systick_irq_handle
00000000 l    df *ABS*	00000000 hrtimer.c
0000003e l       *ABS*	00000000 __SP_H__
0000003d l       *ABS*	00000000 __SP_L__
0000003f l       *ABS*	00000000 __SREG__
0000003b l       *ABS*	00000000 __RAMPZ__
00000000 l       *ABS*	00000000 __tmp_reg__
00000001 l       *ABS*	00000000 __zero_reg__
0000f6c0 l     F .text	00000098 raw_hrtimer_source_add
00000000 l    df *ABS*	00000000 
00000000 l    df *ABS*	00000000 core.c
0000003e l       *ABS*	00000000 __SP_H__
0000003d l       *ABS*	00000000 __SP_L__
0000003f l       *ABS*	00000000 __SREG__
0000003b l       *ABS*	00000000 __RAMPZ__
00000000 l       *ABS*	00000000 __tmp_reg__
00000001 l       *ABS*	00000000 __zero_reg__
000100d8 l     F .text	00000038 clear_bit
00010110 l     F .text	00000036 set_bit
00010146 l     F .text	0000003a raw_rq_add_thread
00010180 l     F .text	00000042 sched_sleep_timeout
000101c2 l     F .text	0000001c sched_get_next_runnable
000101de l     F .text	00000026 need_resched
008003ca l     O .data	00000015 grq
00010502 l     F .text	00000402 __schedule
008006d2 l     O .bss	00000042 idle_thread
00010a8c l     F .text	0000005a idle_thread_func
0080068e l     O .bss	00000002 main_stack_ptr
00800690 l     O .bss	00000042 main_thread
00010ae6 l     F .text	00000028 spin_lock_irqsave_noresched
00010b84 l     F .text	0000001c spin_unlock_irqrestore_noresched
00010d4a l     F .text	00000042 queue_wait_tmo
000112ca l     F .text	0000005e sched_init
0080068c l     O .bss	00000002 idle_stack_ptr
000005e2 l     F .text	00000004 __sched_init
00000000 l    df *ABS*	00000000 edf.c
0000003e l       *ABS*	00000000 __SP_H__
0000003d l       *ABS*	00000000 __SP_L__
0000003f l       *ABS*	00000000 __SREG__
0000003b l       *ABS*	00000000 __RAMPZ__
00000000 l       *ABS*	00000000 __tmp_reg__
00000001 l       *ABS*	00000000 __zero_reg__
0000fdde l     F .text	00000076 edf_preempt_chk
0000fe54 l     F .text	00000012 edf_thread_after
0000fe66 l     F .text	00000006 edf_thread_queue_remove
0000fe6c l     F .text	0000002e edf_rm_thread
0000fe9a l     F .text	000001e8 raw_edf_insert
0000fad4 l     O .text	00000100 __prio_array
00010082 l     F .text	00000006 edf_thread_queue_add
00010088 l     F .text	0000002e edf_add_thread
000100b6 l     F .text	00000022 edf_next_runnable
00000000 l    df *ABS*	00000000 rr-shared.c
0000003e l       *ABS*	00000000 __SP_H__
0000003d l       *ABS*	00000000 __SP_L__
0000003f l       *ABS*	00000000 __SREG__
0000003b l       *ABS*	00000000 __RAMPZ__
00000000 l       *ABS*	00000000 __tmp_reg__
00000001 l       *ABS*	00000000 __zero_reg__
00000000 l    df *ABS*	00000000 fifo.c
0000003e l       *ABS*	00000000 __SP_H__
0000003d l       *ABS*	00000000 __SP_L__
0000003f l       *ABS*	00000000 __SREG__
0000003b l       *ABS*	00000000 __RAMPZ__
00000000 l       *ABS*	00000000 __tmp_reg__
00000001 l       *ABS*	00000000 __zero_reg__
0000fcbe l     F .text	00000066 fifo_queue_insert
0000fd24 l     F .text	00000006 fifo_thread_queue_add
0000fd2a l     F .text	00000024 fifo_add_thread
0000fd4e l     F .text	00000012 fifo_thread_after
0000fd60 l     F .text	00000006 fifo_thread_queue_remove
0000fd66 l     F .text	0000002e fifo_rm_thread
0000fd94 l     F .text	00000028 fifo_preempt_chk
0000fdbc l     F .text	00000022 fifo_next_runnable
00000000 l    df *ABS*	00000000 
00000000 l    df *ABS*	00000000 thread.c
0000003e l       *ABS*	00000000 __SP_H__
0000003d l       *ABS*	00000000 __SP_L__
0000003f l       *ABS*	00000000 __SREG__
0000003b l       *ABS*	00000000 __RAMPZ__
00000000 l       *ABS*	00000000 __tmp_reg__
00000001 l       *ABS*	00000000 __zero_reg__
00011328 l     F .text	00000036 set_bit
0001135e l     F .text	000000bc raw_thread_init
0001141a l     F .text	0000002e preempt_dec_and_test
00000000 l    df *ABS*	00000000 ipm.c
0000003e l       *ABS*	00000000 __SP_H__
0000003d l       *ABS*	00000000 __SP_L__
0000003f l       *ABS*	00000000 __SREG__
0000003b l       *ABS*	00000000 __RAMPZ__
00000000 l       *ABS*	00000000 __tmp_reg__
00000001 l       *ABS*	00000000 __zero_reg__
000117fa l     F .text	0000003c spin_unlock_irqrestore_resched
00000000 l    df *ABS*	00000000 event.c
0000003e l       *ABS*	00000000 __SP_H__
0000003d l       *ABS*	00000000 __SP_L__
0000003f l       *ABS*	00000000 __SREG__
0000003b l       *ABS*	00000000 __RAMPZ__
00000000 l       *ABS*	00000000 __tmp_reg__
00000001 l       *ABS*	00000000 __zero_reg__
00011a72 l     F .text	00000022 preempt_enable
00011a94 l     F .text	000000ae event_tmo
00000000 l    df *ABS*	00000000 mutex.c
0000003e l       *ABS*	00000000 __SP_H__
0000003d l       *ABS*	00000000 __SP_L__
0000003f l       *ABS*	00000000 __SREG__
0000003b l       *ABS*	00000000 __RAMPZ__
00000000 l       *ABS*	00000000 __tmp_reg__
00000001 l       *ABS*	00000000 __zero_reg__
00000000 l    df *ABS*	00000000 semaphore.c
0000003e l       *ABS*	00000000 __SP_H__
0000003d l       *ABS*	00000000 __SP_L__
0000003f l       *ABS*	00000000 __SREG__
0000003b l       *ABS*	00000000 __RAMPZ__
00000000 l       *ABS*	00000000 __tmp_reg__
00000001 l       *ABS*	00000000 __zero_reg__
00000000 l    df *ABS*	00000000 
00000000 l    df *ABS*	00000000 
00000000 l    df *ABS*	00000000 heap.c
0000003e l       *ABS*	00000000 __SP_H__
0000003d l       *ABS*	00000000 __SP_L__
0000003f l       *ABS*	00000000 __SREG__
0000003b l       *ABS*	00000000 __RAMPZ__
00000000 l       *ABS*	00000000 __tmp_reg__
00000001 l       *ABS*	00000000 __zero_reg__
00012582 l     F .text	000000d6 raw_mm_heap_free.constprop.2
00800719 l     O .bss	00000002 mm_free_list
00012658 l     F .text	00000020 spin_unlock_irqrestore_noresched.constprop.4
00800718 l     O .bss	00000001 mlock
00012678 l     F .text	00000020 spin_lock_irqsave_noresched.constprop.5
00000000 l    df *ABS*	00000000 
00000000 l    df *ABS*	00000000 vfs.c
0000003e l       *ABS*	00000000 __SP_H__
0000003d l       *ABS*	00000000 __SP_L__
0000003f l       *ABS*	00000000 __SREG__
0000003b l       *ABS*	00000000 __RAMPZ__
00000000 l       *ABS*	00000000 __tmp_reg__
00000001 l       *ABS*	00000000 __zero_reg__
000128a6 l     F .text	00000040 spin_unlock_irqrestore_resched.constprop.0
00000000 l    df *ABS*	00000000 read_write.c
0000003e l       *ABS*	00000000 __SP_H__
0000003d l       *ABS*	00000000 __SP_L__
0000003f l       *ABS*	00000000 __SREG__
0000003b l       *ABS*	00000000 __RAMPZ__
00000000 l       *ABS*	00000000 __tmp_reg__
00000001 l       *ABS*	00000000 __zero_reg__
00000000 l    df *ABS*	00000000 fops.c
0000003e l       *ABS*	00000000 __SP_H__
0000003d l       *ABS*	00000000 __SP_L__
0000003f l       *ABS*	00000000 __SREG__
0000003b l       *ABS*	00000000 __RAMPZ__
00000000 l       *ABS*	00000000 __tmp_reg__
00000001 l       *ABS*	00000000 __zero_reg__
00000000 l    df *ABS*	00000000 dirent.c
0000003e l       *ABS*	00000000 __SP_H__
0000003d l       *ABS*	00000000 __SP_L__
0000003f l       *ABS*	00000000 __SREG__
0000003b l       *ABS*	00000000 __RAMPZ__
00000000 l       *ABS*	00000000 __tmp_reg__
00000001 l       *ABS*	00000000 __zero_reg__
00000000 l    df *ABS*	00000000 basename.c
0000003e l       *ABS*	00000000 __SP_H__
0000003d l       *ABS*	00000000 __SP_L__
0000003f l       *ABS*	00000000 __SREG__
0000003b l       *ABS*	00000000 __RAMPZ__
00000000 l       *ABS*	00000000 __tmp_reg__
00000001 l       *ABS*	00000000 __zero_reg__
00000000 l    df *ABS*	00000000 util.c
0000003e l       *ABS*	00000000 __SP_H__
0000003d l       *ABS*	00000000 __SP_L__
0000003f l       *ABS*	00000000 __SREG__
0000003b l       *ABS*	00000000 __RAMPZ__
00000000 l       *ABS*	00000000 __tmp_reg__
00000001 l       *ABS*	00000000 __zero_reg__
00000000 l    df *ABS*	00000000 open_close.c
0000003e l       *ABS*	00000000 __SP_H__
0000003d l       *ABS*	00000000 __SP_L__
0000003f l       *ABS*	00000000 __SREG__
0000003b l       *ABS*	00000000 __RAMPZ__
00000000 l       *ABS*	00000000 __tmp_reg__
00000001 l       *ABS*	00000000 __zero_reg__
00000000 l    df *ABS*	00000000 
00000000 l    df *ABS*	00000000 romfs.c
0000003e l       *ABS*	00000000 __SP_H__
0000003d l       *ABS*	00000000 __SP_L__
0000003f l       *ABS*	00000000 __SREG__
0000003b l       *ABS*	00000000 __RAMPZ__
00000000 l       *ABS*	00000000 __tmp_reg__
00000001 l       *ABS*	00000000 __zero_reg__
00013150 l     F .text	00000030 romfs_getc
00013180 l     F .text	00000066 romfs_read
000131e6 l     F .text	0000007a romfs_close
00013260 l     F .text	00000096 romfs_open
000132f6 l     F .text	000000c8 romfs_rollout
000005ee l     F .text	00000004 __romfs_rollout
00000000 l    df *ABS*	00000000 ramfs.c
0000003e l       *ABS*	00000000 __SP_H__
0000003d l       *ABS*	00000000 __SP_L__
0000003f l       *ABS*	00000000 __SREG__
0000003b l       *ABS*	00000000 __RAMPZ__
00000000 l       *ABS*	00000000 __tmp_reg__
00000001 l       *ABS*	00000000 __zero_reg__
000133be l     F .text	00000008 ramfs_ftell
000133c6 l     F .text	00000050 ramfs_read
00013416 l     F .text	0000002a ramfs_getc
00013440 l     F .text	0000002e ramfs_ioctl
0001346e l     F .text	0000003c ramfs_expand
000134aa l     F .text	00000054 ramfs_putc
000134fe l     F .text	00000072 ramfs_write
00013570 l     F .text	00000036 ramfs_close
000135a6 l     F .text	000000ac ramfs_create
00013652 l     F .text	0000003c ramfs_open
0001368e l     F .text	00000040 ramfs_lseek
000005f2 l     F .text	00000004 __ramfs_init
00000000 l    df *ABS*	00000000 
00000000 l    df *ABS*	00000000 
00000000 l    df *ABS*	00000000 gpiolib.c
0000003e l       *ABS*	00000000 __SP_H__
0000003d l       *ABS*	00000000 __SP_L__
0000003f l       *ABS*	00000000 __SREG__
0000003b l       *ABS*	00000000 __RAMPZ__
00000000 l       *ABS*	00000000 __tmp_reg__
00000001 l       *ABS*	00000000 __zero_reg__
00013a32 l     F .text	00000002 gpiolib_init
000005e6 l     F .text	00000004 __gpiolib_init
00000000 l    df *ABS*	00000000 usart-core.c
0000003e l       *ABS*	00000000 __SP_H__
0000003d l       *ABS*	00000000 __SP_L__
0000003f l       *ABS*	00000000 __SREG__
0000003b l       *ABS*	00000000 __RAMPZ__
00000000 l       *ABS*	00000000 __tmp_reg__
00000001 l       *ABS*	00000000 __zero_reg__
00013c36 l     F .text	0000003e usart_getc
00013c74 l     F .text	0000004a usart_putc
00013cbe l     F .text	0000006a usart_write
00013d28 l     F .text	0000006a usart_read
00800519 l     O .data	00000010 usart_fops
00013e22 l     F .text	00000002 usart_core_init
000005ea l     F .text	00000004 __usart_core_init
00000000 l    df *ABS*	00000000 usart-atmega.c
0000003e l       *ABS*	00000000 __SP_H__
0000003d l       *ABS*	00000000 __SP_L__
0000003f l       *ABS*	00000000 __SREG__
0000003b l       *ABS*	00000000 __RAMPZ__
00000000 l       *ABS*	00000000 __tmp_reg__
00000001 l       *ABS*	00000000 __zero_reg__
00013a34 l     F .text	0000003c atmega_usart_putc
00013a70 l     F .text	00000064 atmega_usart_write
00013ad4 l     F .text	0000003c atmega_usart_read
00800721 l     O .bss	00000002 usart_rx_buff
0080071f l     O .bss	00000002 usart_rx_len
0080071d l     O .bss	00000002 usart_rx_idx
00800723 l     O .bss	00000007 usart_rx_mtx
00013b10 l     F .text	00000050 atmega_usart_getc
00013b60 l     F .text	0000005c usart_rx_irq
00013bbc l     F .text	0000007a atmega_usart_init
008004b4 l     O .data	00000065 atmega_usart
000005fa l     F .text	00000004 __atmega_usart_init
00000000 l    df *ABS*	00000000 python.c
0000003e l       *ABS*	00000000 __SP_H__
0000003d l       *ABS*	00000000 __SP_L__
0000003f l       *ABS*	00000000 __SREG__
0000003b l       *ABS*	00000000 __RAMPZ__
00000000 l       *ABS*	00000000 __tmp_reg__
00000001 l       *ABS*	00000000 __zero_reg__
00000000 l    df *ABS*	00000000 pyusrlib.c
0000003e l       *ABS*	00000000 __SP_H__
0000003d l       *ABS*	00000000 __SP_L__
0000003f l       *ABS*	00000000 __SREG__
0000003b l       *ABS*	00000000 __RAMPZ__
00000000 l       *ABS*	00000000 __tmp_reg__
00000001 l       *ABS*	00000000 __zero_reg__
00000000 l    df *ABS*	00000000 core.c
0000003e l       *ABS*	00000000 __SP_H__
0000003d l       *ABS*	00000000 __SP_L__
0000003f l       *ABS*	00000000 __SREG__
0000003b l       *ABS*	00000000 __RAMPZ__
00000000 l       *ABS*	00000000 __tmp_reg__
00000001 l       *ABS*	00000000 __zero_reg__
00013e24 l     F .text	00000034 dev_release
00800529 l     O .data	00000004 dev_root
00000000 l    df *ABS*	00000000 devfs.c
0000003e l       *ABS*	00000000 __SP_H__
0000003d l       *ABS*	00000000 __SP_L__
0000003f l       *ABS*	00000000 __SREG__
0000003b l       *ABS*	00000000 __RAMPZ__
00000000 l       *ABS*	00000000 __tmp_reg__
00000001 l       *ABS*	00000000 __zero_reg__
00014016 l     F .text	00000006 devfs_ioctl
00000000 l    df *ABS*	00000000 printf_p.c
0000003e l       *ABS*	00000000 __SP_H__
0000003d l       *ABS*	00000000 __SP_L__
0000003f l       *ABS*	00000000 __SREG__
0000003b l       *ABS*	00000000 __RAMPZ__
00000000 l       *ABS*	00000000 __tmp_reg__
00000001 l       *ABS*	00000000 __zero_reg__
00000000 l    df *ABS*	00000000 vfprintf_p.c
0000003e l       *ABS*	00000000 __SP_H__
0000003d l       *ABS*	00000000 __SP_L__
0000003f l       *ABS*	00000000 __SREG__
0000003b l       *ABS*	00000000 __RAMPZ__
00000000 l       *ABS*	00000000 __tmp_reg__
00000001 l       *ABS*	00000000 __zero_reg__
00000000 l    df *ABS*	00000000 memcpy.c
0000003e l       *ABS*	00000000 __SP_H__
0000003d l       *ABS*	00000000 __SP_L__
0000003f l       *ABS*	00000000 __SREG__
0000003b l       *ABS*	00000000 __RAMPZ__
00000000 l       *ABS*	00000000 __tmp_reg__
00000001 l       *ABS*	00000000 __zero_reg__
00000000 l    df *ABS*	00000000 memcmp.c
0000003e l       *ABS*	00000000 __SP_H__
0000003d l       *ABS*	00000000 __SP_L__
0000003f l       *ABS*	00000000 __SREG__
0000003b l       *ABS*	00000000 __RAMPZ__
00000000 l       *ABS*	00000000 __tmp_reg__
00000001 l       *ABS*	00000000 __zero_reg__
00000000 l    df *ABS*	00000000 strtol.c
0000003e l       *ABS*	00000000 __SP_H__
0000003d l       *ABS*	00000000 __SP_L__
0000003f l       *ABS*	00000000 __SREG__
0000003b l       *ABS*	00000000 __RAMPZ__
00000000 l       *ABS*	00000000 __tmp_reg__
00000001 l       *ABS*	00000000 __zero_reg__
00000000 l    df *ABS*	00000000 ctype.c
0000003e l       *ABS*	00000000 __SP_H__
0000003d l       *ABS*	00000000 __SP_L__
0000003f l       *ABS*	00000000 __SREG__
0000003b l       *ABS*	00000000 __RAMPZ__
00000000 l       *ABS*	00000000 __tmp_reg__
00000001 l       *ABS*	00000000 __zero_reg__
00000000 l    df *ABS*	00000000 kmalloc.c
0000003e l       *ABS*	00000000 __SP_H__
0000003d l       *ABS*	00000000 __SP_L__
0000003f l       *ABS*	00000000 __SREG__
0000003b l       *ABS*	00000000 __RAMPZ__
00000000 l       *ABS*	00000000 __tmp_reg__
00000001 l       *ABS*	00000000 __zero_reg__
00000000 l    df *ABS*	00000000 kzalloc.c
0000003e l       *ABS*	00000000 __SP_H__
0000003d l       *ABS*	00000000 __SP_L__
0000003f l       *ABS*	00000000 __SREG__
0000003b l       *ABS*	00000000 __RAMPZ__
00000000 l       *ABS*	00000000 __tmp_reg__
00000001 l       *ABS*	00000000 __zero_reg__
00000000 l    df *ABS*	00000000 kfree.c
0000003e l       *ABS*	00000000 __SP_H__
0000003d l       *ABS*	00000000 __SP_L__
0000003f l       *ABS*	00000000 __SREG__
0000003b l       *ABS*	00000000 __RAMPZ__
00000000 l       *ABS*	00000000 __tmp_reg__
00000001 l       *ABS*	00000000 __zero_reg__
00000000 l    df *ABS*	00000000 krealloc.c
0000003e l       *ABS*	00000000 __SP_H__
0000003d l       *ABS*	00000000 __SP_L__
0000003f l       *ABS*	00000000 __SREG__
0000003b l       *ABS*	00000000 __RAMPZ__
00000000 l       *ABS*	00000000 __tmp_reg__
00000001 l       *ABS*	00000000 __zero_reg__
00000000 l    df *ABS*	00000000 putc.c
0000003e l       *ABS*	00000000 __SP_H__
0000003d l       *ABS*	00000000 __SP_L__
0000003f l       *ABS*	00000000 __SREG__
0000003b l       *ABS*	00000000 __RAMPZ__
00000000 l       *ABS*	00000000 __tmp_reg__
00000001 l       *ABS*	00000000 __zero_reg__
00000000 l    df *ABS*	00000000 printf.c
0000003e l       *ABS*	00000000 __SP_H__
0000003d l       *ABS*	00000000 __SP_L__
0000003f l       *ABS*	00000000 __SREG__
0000003b l       *ABS*	00000000 __RAMPZ__
00000000 l       *ABS*	00000000 __tmp_reg__
00000001 l       *ABS*	00000000 __zero_reg__
00000000 l    df *ABS*	00000000 vfprintf.c
0000003e l       *ABS*	00000000 __SP_H__
0000003d l       *ABS*	00000000 __SP_L__
0000003f l       *ABS*	00000000 __SREG__
0000003b l       *ABS*	00000000 __RAMPZ__
00000000 l       *ABS*	00000000 __tmp_reg__
00000001 l       *ABS*	00000000 __zero_reg__
000146f2 l     F .text	0000018a convert_to_num
00000000 l    df *ABS*	00000000 fputs.c
0000003e l       *ABS*	00000000 __SP_H__
0000003d l       *ABS*	00000000 __SP_L__
0000003f l       *ABS*	00000000 __SREG__
0000003b l       *ABS*	00000000 __RAMPZ__
00000000 l       *ABS*	00000000 __tmp_reg__
00000001 l       *ABS*	00000000 __zero_reg__
00000000 l    df *ABS*	00000000 fputc.c
0000003e l       *ABS*	00000000 __SP_H__
0000003d l       *ABS*	00000000 __SP_L__
0000003f l       *ABS*	00000000 __SREG__
0000003b l       *ABS*	00000000 __RAMPZ__
00000000 l       *ABS*	00000000 __tmp_reg__
00000001 l       *ABS*	00000000 __zero_reg__
00000000 l    df *ABS*	00000000 fprintf.c
0000003e l       *ABS*	00000000 __SP_H__
0000003d l       *ABS*	00000000 __SP_L__
0000003f l       *ABS*	00000000 __SREG__
0000003b l       *ABS*	00000000 __RAMPZ__
00000000 l       *ABS*	00000000 __tmp_reg__
00000001 l       *ABS*	00000000 __zero_reg__
00000000 l    df *ABS*	00000000 write.c
0000003e l       *ABS*	00000000 __SP_H__
0000003d l       *ABS*	00000000 __SP_L__
0000003f l       *ABS*	00000000 __SREG__
0000003b l       *ABS*	00000000 __RAMPZ__
00000000 l       *ABS*	00000000 __tmp_reg__
00000001 l       *ABS*	00000000 __zero_reg__
00000000 l    df *ABS*	00000000 fgetc.c
0000003e l       *ABS*	00000000 __SP_H__
0000003d l       *ABS*	00000000 __SP_L__
0000003f l       *ABS*	00000000 __SREG__
0000003b l       *ABS*	00000000 __RAMPZ__
00000000 l       *ABS*	00000000 __tmp_reg__
00000001 l       *ABS*	00000000 __zero_reg__
00000000 l    df *ABS*	00000000 strncpy_P.c
0000003e l       *ABS*	00000000 __SP_H__
0000003d l       *ABS*	00000000 __SP_L__
0000003f l       *ABS*	00000000 __SREG__
0000003b l       *ABS*	00000000 __RAMPZ__
00000000 l       *ABS*	00000000 __tmp_reg__
00000001 l       *ABS*	00000000 __zero_reg__
00000000 l    df *ABS*	00000000 puts.c
0000003e l       *ABS*	00000000 __SP_H__
0000003d l       *ABS*	00000000 __SP_L__
0000003f l       *ABS*	00000000 __SREG__
0000003b l       *ABS*	00000000 __RAMPZ__
00000000 l       *ABS*	00000000 __tmp_reg__
00000001 l       *ABS*	00000000 __zero_reg__
00000000 l    df *ABS*	00000000 puts_P.c
0000003e l       *ABS*	00000000 __SP_H__
0000003d l       *ABS*	00000000 __SP_L__
0000003f l       *ABS*	00000000 __SREG__
0000003b l       *ABS*	00000000 __RAMPZ__
00000000 l       *ABS*	00000000 __tmp_reg__
00000001 l       *ABS*	00000000 __zero_reg__
00000000 l    df *ABS*	00000000 strlen.c
0000003e l       *ABS*	00000000 __SP_H__
0000003d l       *ABS*	00000000 __SP_L__
0000003f l       *ABS*	00000000 __SREG__
0000003b l       *ABS*	00000000 __RAMPZ__
00000000 l       *ABS*	00000000 __tmp_reg__
00000001 l       *ABS*	00000000 __zero_reg__
00000000 l    df *ABS*	00000000 memchr.c
0000003e l       *ABS*	00000000 __SP_H__
0000003d l       *ABS*	00000000 __SP_L__
0000003f l       *ABS*	00000000 __SREG__
0000003b l       *ABS*	00000000 __RAMPZ__
00000000 l       *ABS*	00000000 __tmp_reg__
00000001 l       *ABS*	00000000 __zero_reg__
00000000 l    df *ABS*	00000000 strcmp.c
0000003e l       *ABS*	00000000 __SP_H__
0000003d l       *ABS*	00000000 __SP_L__
0000003f l       *ABS*	00000000 __SREG__
0000003b l       *ABS*	00000000 __RAMPZ__
00000000 l       *ABS*	00000000 __tmp_reg__
00000001 l       *ABS*	00000000 __zero_reg__
00000000 l    df *ABS*	00000000 memset.c
0000003e l       *ABS*	00000000 __SP_H__
0000003d l       *ABS*	00000000 __SP_L__
0000003f l       *ABS*	00000000 __SREG__
0000003b l       *ABS*	00000000 __RAMPZ__
00000000 l       *ABS*	00000000 __tmp_reg__
00000001 l       *ABS*	00000000 __zero_reg__
00000000 l    df *ABS*	00000000 strdup.c
0000003e l       *ABS*	00000000 __SP_H__
0000003d l       *ABS*	00000000 __SP_L__
0000003f l       *ABS*	00000000 __SREG__
0000003b l       *ABS*	00000000 __RAMPZ__
00000000 l       *ABS*	00000000 __tmp_reg__
00000001 l       *ABS*	00000000 __zero_reg__
00000000 l    df *ABS*	00000000 strcpy.c
0000003e l       *ABS*	00000000 __SP_H__
0000003d l       *ABS*	00000000 __SP_L__
0000003f l       *ABS*	00000000 __SREG__
0000003b l       *ABS*	00000000 __RAMPZ__
00000000 l       *ABS*	00000000 __tmp_reg__
00000001 l       *ABS*	00000000 __zero_reg__
00000000 l    df *ABS*	00000000 strncpy.c
0000003e l       *ABS*	00000000 __SP_H__
0000003d l       *ABS*	00000000 __SP_L__
0000003f l       *ABS*	00000000 __SREG__
0000003b l       *ABS*	00000000 __RAMPZ__
00000000 l       *ABS*	00000000 __tmp_reg__
00000001 l       *ABS*	00000000 __zero_reg__
00000000 l    df *ABS*	00000000 strtok.c
0000003e l       *ABS*	00000000 __SP_H__
0000003d l       *ABS*	00000000 __SP_L__
0000003f l       *ABS*	00000000 __SREG__
0000003b l       *ABS*	00000000 __RAMPZ__
00000000 l       *ABS*	00000000 __tmp_reg__
00000001 l       *ABS*	00000000 __zero_reg__
00000000 l    df *ABS*	00000000 mount.c
0000003e l       *ABS*	00000000 __SP_H__
0000003d l       *ABS*	00000000 __SP_L__
0000003f l       *ABS*	00000000 __SREG__
0000003b l       *ABS*	00000000 __RAMPZ__
00000000 l       *ABS*	00000000 __tmp_reg__
00000001 l       *ABS*	00000000 __zero_reg__
00014fcc l     F .text	0000002e preempt_dec_and_test
00000000 l    df *ABS*	00000000 mkdir.c
0000003e l       *ABS*	00000000 __SP_H__
0000003d l       *ABS*	00000000 __SP_L__
0000003f l       *ABS*	00000000 __SREG__
0000003b l       *ABS*	00000000 __RAMPZ__
00000000 l       *ABS*	00000000 __tmp_reg__
00000001 l       *ABS*	00000000 __zero_reg__
000150a0 l     F .text	00000040 spin_unlock_irqrestore_resched.constprop.0
00000000 l    df *ABS*	00000000 _divmodhi4.o
000151d8 l       .text	00000000 __divmodhi4_neg1
000151e0 l       .text	00000000 __divmodhi4_neg2
000151e6 l       .text	00000000 __divmodhi4_exit
00000000 l    df *ABS*	00000000 _udivmodsi4.o
0001520e l       .text	00000000 __udivmodsi4_ep
000151f4 l       .text	00000000 __udivmodsi4_loop
00000000 l    df *ABS*	00000000 _divmodsi4.o
0001524a l       .text	00000000 __divmodsi4_neg2
00015258 l       .text	00000000 __divmodsi4_exit
00000000 l    df *ABS*	00000000 _udivmodhi4.o
000155d0 l       .text	00000000 __udivmodhi4_ep
000155c2 l       .text	00000000 __udivmodhi4_loop
00000000 l    df *ABS*	00000000 pyusrlib-img.c
0000003e l       *ABS*	00000000 __SP_H__
0000003d l       *ABS*	00000000 __SP_L__
0000003f l       *ABS*	00000000 __SREG__
0000003b l       *ABS*	00000000 __RAMPZ__
00000000 l       *ABS*	00000000 __tmp_reg__
00000001 l       *ABS*	00000000 __zero_reg__
00000000 l    df *ABS*	00000000 fprintf_P.c
0000003e l       *ABS*	00000000 __SP_H__
0000003d l       *ABS*	00000000 __SP_L__
0000003f l       *ABS*	00000000 __SREG__
0000003b l       *ABS*	00000000 __RAMPZ__
00000000 l       *ABS*	00000000 __tmp_reg__
00000001 l       *ABS*	00000000 __zero_reg__
00000000 l    df *ABS*	00000000 rand.c
0000003e l       *ABS*	00000000 __SP_H__
0000003d l       *ABS*	00000000 __SP_L__
0000003f l       *ABS*	00000000 __SREG__
0000003b l       *ABS*	00000000 __RAMPZ__
00000000 l       *ABS*	00000000 __tmp_reg__
00000001 l       *ABS*	00000000 __zero_reg__
00000000 l    df *ABS*	00000000 atoi.c
0000003e l       *ABS*	00000000 __SP_H__
0000003d l       *ABS*	00000000 __SP_L__
0000003f l       *ABS*	00000000 __SREG__
0000003b l       *ABS*	00000000 __RAMPZ__
00000000 l       *ABS*	00000000 __tmp_reg__
00000001 l       *ABS*	00000000 __zero_reg__
00000000 l    df *ABS*	00000000 abs.c
0000003e l       *ABS*	00000000 __SP_H__
0000003d l       *ABS*	00000000 __SP_L__
0000003f l       *ABS*	00000000 __SREG__
0000003b l       *ABS*	00000000 __RAMPZ__
00000000 l       *ABS*	00000000 __tmp_reg__
00000001 l       *ABS*	00000000 __zero_reg__
00000000 l    df *ABS*	00000000 labs.c
0000003e l       *ABS*	00000000 __SP_H__
0000003d l       *ABS*	00000000 __SP_L__
0000003f l       *ABS*	00000000 __SREG__
0000003b l       *ABS*	00000000 __RAMPZ__
00000000 l       *ABS*	00000000 __tmp_reg__
00000001 l       *ABS*	00000000 __zero_reg__
00000000 l    df *ABS*	00000000 itoa.c
0000003e l       *ABS*	00000000 __SP_H__
0000003d l       *ABS*	00000000 __SP_L__
0000003f l       *ABS*	00000000 __SREG__
0000003b l       *ABS*	00000000 __RAMPZ__
00000000 l       *ABS*	00000000 __tmp_reg__
00000001 l       *ABS*	00000000 __zero_reg__
00000000 l    df *ABS*	00000000 ltoa.c
0000003e l       *ABS*	00000000 __SP_H__
0000003d l       *ABS*	00000000 __SP_L__
0000003f l       *ABS*	00000000 __SREG__
0000003b l       *ABS*	00000000 __RAMPZ__
00000000 l       *ABS*	00000000 __tmp_reg__
00000001 l       *ABS*	00000000 __zero_reg__
00000000 l    df *ABS*	00000000 kcalloc.c
0000003e l       *ABS*	00000000 __SP_H__
0000003d l       *ABS*	00000000 __SP_L__
0000003f l       *ABS*	00000000 __SREG__
0000003b l       *ABS*	00000000 __RAMPZ__
00000000 l       *ABS*	00000000 __tmp_reg__
00000001 l       *ABS*	00000000 __zero_reg__
00000000 l    df *ABS*	00000000 gmtime.c
0000003e l       *ABS*	00000000 __SP_H__
0000003d l       *ABS*	00000000 __SP_L__
0000003f l       *ABS*	00000000 __SREG__
0000003b l       *ABS*	00000000 __RAMPZ__
00000000 l       *ABS*	00000000 __tmp_reg__
00000001 l       *ABS*	00000000 __zero_reg__
00000000 l    df *ABS*	00000000 localtime.c
0000003e l       *ABS*	00000000 __SP_H__
0000003d l       *ABS*	00000000 __SP_L__
0000003f l       *ABS*	00000000 __SREG__
0000003b l       *ABS*	00000000 __RAMPZ__
00000000 l       *ABS*	00000000 __tmp_reg__
00000001 l       *ABS*	00000000 __zero_reg__
00000000 l    df *ABS*	00000000 mktime.c
0000003e l       *ABS*	00000000 __SP_H__
0000003d l       *ABS*	00000000 __SP_L__
0000003f l       *ABS*	00000000 __SREG__
0000003b l       *ABS*	00000000 __RAMPZ__
00000000 l       *ABS*	00000000 __tmp_reg__
00000001 l       *ABS*	00000000 __zero_reg__
00000000 l    df *ABS*	00000000 read.c
0000003e l       *ABS*	00000000 __SP_H__
0000003d l       *ABS*	00000000 __SP_L__
0000003f l       *ABS*	00000000 __SREG__
0000003b l       *ABS*	00000000 __RAMPZ__
00000000 l       *ABS*	00000000 __tmp_reg__
00000001 l       *ABS*	00000000 __zero_reg__
00000000 l    df *ABS*	00000000 fgets.c
0000003e l       *ABS*	00000000 __SP_H__
0000003d l       *ABS*	00000000 __SP_L__
0000003f l       *ABS*	00000000 __SREG__
0000003b l       *ABS*	00000000 __RAMPZ__
00000000 l       *ABS*	00000000 __tmp_reg__
00000001 l       *ABS*	00000000 __zero_reg__
00000000 l    df *ABS*	00000000 ioctl.c
0000003e l       *ABS*	00000000 __SP_H__
0000003d l       *ABS*	00000000 __SP_L__
0000003f l       *ABS*	00000000 __SREG__
0000003b l       *ABS*	00000000 __RAMPZ__
00000000 l       *ABS*	00000000 __tmp_reg__
00000001 l       *ABS*	00000000 __zero_reg__
00000000 l    df *ABS*	00000000 getc.c
0000003e l       *ABS*	00000000 __SP_H__
0000003d l       *ABS*	00000000 __SP_L__
0000003f l       *ABS*	00000000 __SREG__
0000003b l       *ABS*	00000000 __RAMPZ__
00000000 l       *ABS*	00000000 __tmp_reg__
00000001 l       *ABS*	00000000 __zero_reg__
00000000 l    df *ABS*	00000000 open.c
0000003e l       *ABS*	00000000 __SP_H__
0000003d l       *ABS*	00000000 __SP_L__
0000003f l       *ABS*	00000000 __SREG__
0000003b l       *ABS*	00000000 __RAMPZ__
00000000 l       *ABS*	00000000 __tmp_reg__
00000001 l       *ABS*	00000000 __zero_reg__
00000000 l    df *ABS*	00000000 close.c
0000003e l       *ABS*	00000000 __SP_H__
0000003d l       *ABS*	00000000 __SP_L__
0000003f l       *ABS*	00000000 __SREG__
0000003b l       *ABS*	00000000 __RAMPZ__
00000000 l       *ABS*	00000000 __tmp_reg__
00000001 l       *ABS*	00000000 __zero_reg__
00000000 l    df *ABS*	00000000 strchr.c
0000003e l       *ABS*	00000000 __SP_H__
0000003d l       *ABS*	00000000 __SP_L__
0000003f l       *ABS*	00000000 __SREG__
0000003b l       *ABS*	00000000 __RAMPZ__
00000000 l       *ABS*	00000000 __tmp_reg__
00000001 l       *ABS*	00000000 __zero_reg__
00000000 l    df *ABS*	00000000 strnlen.c
0000003e l       *ABS*	00000000 __SP_H__
0000003d l       *ABS*	00000000 __SP_L__
0000003f l       *ABS*	00000000 __SREG__
0000003b l       *ABS*	00000000 __RAMPZ__
00000000 l       *ABS*	00000000 __tmp_reg__
00000001 l       *ABS*	00000000 __zero_reg__
00000000 l    df *ABS*	00000000 strcat.c
0000003e l       *ABS*	00000000 __SP_H__
0000003d l       *ABS*	00000000 __SP_L__
0000003f l       *ABS*	00000000 __SREG__
0000003b l       *ABS*	00000000 __RAMPZ__
00000000 l       *ABS*	00000000 __tmp_reg__
00000001 l       *ABS*	00000000 __zero_reg__
00000000 l    df *ABS*	00000000 unlink.c
0000003e l       *ABS*	00000000 __SP_H__
0000003d l       *ABS*	00000000 __SP_L__
0000003f l       *ABS*	00000000 __SREG__
0000003b l       *ABS*	00000000 __RAMPZ__
00000000 l       *ABS*	00000000 __tmp_reg__
00000001 l       *ABS*	00000000 __zero_reg__
00000000 l    df *ABS*	00000000 ftell.c
0000003e l       *ABS*	00000000 __SP_H__
0000003d l       *ABS*	00000000 __SP_L__
0000003f l       *ABS*	00000000 __SREG__
0000003b l       *ABS*	00000000 __RAMPZ__
00000000 l       *ABS*	00000000 __tmp_reg__
00000001 l       *ABS*	00000000 __zero_reg__
00000000 l    df *ABS*	00000000 lseek.c
0000003e l       *ABS*	00000000 __SP_H__
0000003d l       *ABS*	00000000 __SP_L__
0000003f l       *ABS*	00000000 __SREG__
0000003b l       *ABS*	00000000 __RAMPZ__
00000000 l       *ABS*	00000000 __tmp_reg__
00000001 l       *ABS*	00000000 __zero_reg__
00000000 l    df *ABS*	00000000 opendir.c
0000003e l       *ABS*	00000000 __SP_H__
0000003d l       *ABS*	00000000 __SP_L__
0000003f l       *ABS*	00000000 __SREG__
0000003b l       *ABS*	00000000 __RAMPZ__
00000000 l       *ABS*	00000000 __tmp_reg__
00000001 l       *ABS*	00000000 __zero_reg__
00000000 l    df *ABS*	00000000 readdir.c
0000003e l       *ABS*	00000000 __SP_H__
0000003d l       *ABS*	00000000 __SP_L__
0000003f l       *ABS*	00000000 __SREG__
0000003b l       *ABS*	00000000 __RAMPZ__
00000000 l       *ABS*	00000000 __tmp_reg__
00000001 l       *ABS*	00000000 __zero_reg__
00000000 l    df *ABS*	00000000 readdir_r.c
0000003e l       *ABS*	00000000 __SP_H__
0000003d l       *ABS*	00000000 __SP_L__
0000003f l       *ABS*	00000000 __SREG__
0000003b l       *ABS*	00000000 __RAMPZ__
00000000 l       *ABS*	00000000 __tmp_reg__
00000001 l       *ABS*	00000000 __zero_reg__
00000000 l    df *ABS*	00000000 closedir.c
0000003e l       *ABS*	00000000 __SP_H__
0000003d l       *ABS*	00000000 __SP_L__
0000003f l       *ABS*	00000000 __SREG__
0000003b l       *ABS*	00000000 __RAMPZ__
00000000 l       *ABS*	00000000 __tmp_reg__
00000001 l       *ABS*	00000000 __zero_reg__
00000000 l    df *ABS*	00000000 
0000d694 g     F .text	000001f6 nat_22___bi_range
00000644  w      .text	00000000 __vector_38
00015294 g       .text	00000004 .hidden __usmulhisi3
000036de g     F .text	000000b8 dict_compare
0000d048 g     F .text	00000026 nat_20___bi_locals
0080071b  w    O .bss	00000002 romEntryList
00000644  w      .text	00000000 __vector_22
000040b6 g     F .text	00000178 global_loadBuiltins
00014ef4 g     F .text	00000012 strcpy
00010b0e g     F .text	0000001e __preempt_sub
0000c986 g     F .text	0000003a tuple_getItem
0000d17e g     F .text	0000003e nat_06_sys_putb
00010ef0 g     F .text	00000098 rq_remove_thread
0000bcfe g     F .text	0000002e string_compare
0001466a g     F .text	00000060 krealloc
0000f9d4 g     F .text	000000e4 hrtimer_stop
00000644  w      .text	00000000 __vector_28
00012512 g     F .text	00000004 _Znaj
0000d476 g     F .text	000000ee nat_11_string_find
00012b14 g     F .text	00000024 vfs_write
000116b4 g     F .text	0000000c yield
00015d14 g     F .text	0000008a log
00012b5c g     F .text	00000026 vfs_setoffset
000008c6 g     F .text	0000000c arch_irq_get_flags
00011542 g     F .text	00000054 thread_initialise
0001536e g       .text	00000002 .hidden __divdi3
00004c98 g     F .text	00000006 heap_gcPopTempRoot
000136e2 g     F .text	00000022 avr_init
00014f24 g     F .text	000000a8 strtok_r
00015276 g       .text	0000001e .hidden __umulhisi3
00012056 g     F .text	0000000a mutex_unlock_irq
00002e6c g     F .text	00000062 class_isSubclass
00000644  w      .text	00000000 __vector_1
00015554 g       .text	00000012 .hidden __adddi3
0000bd2c g     F .text	00000172 string_create
0000b740 g     F .text	00000084 seqiter_new
00004f54 g     F .text	00000030 int_bitInvert
00010204 g     F .text	00000006 sched_get_grq
000146ce g     F .text	00000024 printf
000159d0 g       .text	00000000 __fp_mpack_finite
00015358 g       .text	00000012 .hidden __muldi3_6
0000a06a g     F .text	0000000a list_copy
00800571 g     O .data	00000001 _daylight
00013d92 g     F .text	00000046 setup_usart_streams
00000ad2 g     F .text	00000010 avr_save_stack
0001526e g       .text	00000008 .hidden __tablejump__
0000ed28 g     F .text	000000c2 clocksource_delete_timer
0000d1bc g     F .text	0000004e nat_18___bi_id
00000644  w      .text	00000000 __vector_32
0000a5de g     F .text	00000054 mem_getStringLength
000128e6 g     F .text	0000003e vfs_ioctl
00009f92 g     F .text	000000d8 list_replicate
000154e2 g       .text	00000036 .hidden __epilogue_restores__
000156b4 g     F .text	00000004 __divsf3
0000b3c2 g     F .text	0000016a seglist_removeItem
0000c01c g     F .text	00000010 string_getCache
0000ebbe g     F .text	00000070 clocksource_add_timer
00011448 g     F .text	0000003c sched_init_idle
000129fa g     F .text	0000009e vfs_find_file
0000b9b6 g     F .text	0000007c sli_ltoa16
0080072a g     O .bss	00000002 sys_clk
00015a0a g     F .text	00000022 __fp_round
00000644  w      .text	00000000 __vector_34
00015784 g     F .text	0000000a __fixsfsi
0000a0b6 g     F .text	000000a0 list_index
0000fbd4 g     F .text	00000086 rr_shared_queue_insert
0000ac78 g     F .text	00000176 obj_print
00011e88 g     F .text	000000ae raw_event_notify_broadcast
00015a2c g     F .text	00000044 __fp_split3
000112bc g     F .text	0000000e prio
000008c2 g     F .text	00000004 arch_local_irq_disable
000155ba g       .text	00000028 .hidden __udivmodhi4
0001269a g     F .text	0000003e mm_node_size
00010f88 g     F .text	000000c4 rq_add_thread
000052b8 g     F .text	00004a90 interpret
00015d94 g       .text	00000000 modff
00003d88 g     F .text	0000032e global_init
00010466 g     F .text	00000078 raw_rq_remove_thread_noresched
00010c30 g     F .text	0000005c queue_add_thread
00002ece g     F .text	00000232 co_loadFromImg
000001a8 g       .text	00000000 __trampolines_start
00004f84 g     F .text	00000062 int_print
0000b87a g     F .text	000000f8 sli_ltoa10
00015978 g     F .text	00000048 __fp_cmp
00800487 g     O .data	00000010 ramfs
00015e00 g       .text	00000000 _etext
0000ba32 g     F .text	0000003a sli_ptoa16
00004f0e g     F .text	00000046 int_negative
00010a66 g     F .text	00000008 preempt_counter_ptr
00000c18 g     F .text	00000006 arch_get_irq_chip
0001020a g     F .text	00000018 thread_queue_init
000155e2 g     F .text	0000000a __subsf3
00013e58 g     F .text	00000024 dev_core_init
000007f2 g     F .text	00000064 __vector_24
0000c02c g     F .text	00000130 string_concat
00010a6e g     F .text	0000001e __preempt_add
00000644  w      .text	00000000 __vector_12
0000c00e g     F .text	0000000e string_cacheInit
00013f14 g     F .text	00000102 device_initialize
0000ccd4 g     F .text	00000014 plat_putByte
0000fab8 g     F .text	0000001c hrtimer_init
00000644  w      .text	00000000 __vector_55
0001033e g     F .text	00000022 raw_thread_add_to_wake_q
0000bfea g     F .text	00000024 string_print
00011c5e g     F .text	00000082 event_wait
000109cc g     F .text	00000022 preempt_schedule_irq
0000cc9a g     F .text	00000012 plat_deinit
0080072c g     O .bss	00000002 hr_sys_clk
00000644  w      .text	00000000 __vector_46
0000a510 g     F .text	0000004e mem_getFloat
00000644 g       .text	00000000 __bad_interrupt
000140d8 g     F .text	000001c0 memcpy
0001104c g     F .text	00000058 rq_remove_wake_thread
00014040 g     F .text	00000098 vfprintf_P
0080053d g     O .data	0000001a _lpdays
00014666 g     F .text	00000004 kfree
00014d18 g     F .text	0000006a strncpy_P
00011f36 g     F .text	00000026 event_notify_broadcast
000161c0 g       *ABS*	00000000 __data_load_end
0000070e g     F .text	00000020 avr_sre
00014d82 g     F .text	0000002a puts
0000d88a g     F .text	000000da nat_31_dict_keys
0001463c g     F .text	0000002a kzalloc
000123c2 g     F .text	00000062 cpu_set_state
0000ddc2 g     F .text	00000048 nat_38_list_remove
00000644  w      .text	00000000 __vector_6
0000a074 g     F .text	00000042 list_setItem
0000e8f8 g     F .text	00000080 irq_handle
0000cd58 g     F .text	000002ca plat_reportError
00000648 g     F .text	00000000 delay_loop
00000644  w      .text	00000000 __vector_31
00010360 g     F .text	00000022 raw_thread_add_to_kill_q
000117e2 g     F .text	00000018 sleep
0000c8c6 g     F .text	000000c0 tuple_replicate
00015ca2 g     F .text	0000006c ldexp
000008b6 g     F .text	00000004 arch_irq_disable
000156ac g       .text	00000000 __lesf2
00000644  w      .text	00000000 __vector_35
0001207a g     F .text	0000001c sem_wait
0000a49e g     F .text	00000032 mem_getWord
0000b7da g     F .text	00000012 sli_strlen
00800323 g     O .data	0000004e std_nat_fxn_table
0001096a g     F .text	00000062 irq_handle_fn
0000054c g       .text	00000000 __trampolines_end
000110a4 g     F .text	00000138 preempt_should_resched
0000078e g     F .text	00000064 __vector_39
00003510 g     F .text	000000e6 dict_print
00000644  w      .text	00000000 __vector_3
0000c9c0 g     F .text	00000088 tuple_print
00010ba0 g     F .text	00000090 raw_queue_add_thread
00015a70 g     F .text	0000000e __fp_zero
0000422e g     F .text	0000009e global_setBuiltins
0000e682 g     F .text	0000001c irq_to_data
0001460a g     F .text	00000018 isspace
0000b376 g     F .text	0000004c seglist_setItem
0000a67e g     F .text	000000e4 mod_new
00012924 g     F .text	00000074 vfs_add_file
0000ec2e g     F .text	000000fa clocksource_update
000010eb g     O .text	0000177c stdlib_img
0000ba6c g     F .text	00000292 sli_ftoa
00011596 g     F .text	000000b4 thread_init
000156ac g       .text	00000000 __nesf2
000120d2 g     F .text	0000000a main_thread_func
00800557 g     O .data	0000001a _days
00011704 g     F .text	0000000c current_thread
00010e34 g     F .text	000000bc sched_setup_sleep_thread
000153cc g       .text	00000004 .hidden __umoddi3
0000099c g     F .text	00000094 __vector_23
00015e00 g       *ABS*	00000000 __data_load_start
00002868 g     F .text	0000027c bytearray_new
0000054c g       .text	00000000 __dtors_end
00012516 g     F .text	0000000a _ZdlPv
00800465 g     O .data	00000010 vfs_root
000139cc g     F .text	00000066 gpio_pin_init
0080079f g       .bss	00000000 __bss_end
00010904 g     F .text	00000066 schedule
000152a2 g       .text	00000016 .hidden __muluhisi3
0080072e g     O .bss	0000004e gVmGlobal
00000a38 g     F .text	00000004 sched_select_rq
000153d0 g       .text	00000002 .hidden __udivdi3
00000644  w      .text	00000000 __vector_30
00012d62 g     F .text	0000003a dirent_remove_file
00002c8a g     F .text	00000098 class_instantiate
0000cd06 g     F .text	00000052 plat_getMsTicks
0000af1c g     F .text	000000b8 pm_run
00000644  w      .text	00000000 __vector_45
0001242a g     F .text	00000054 spinlock_acquire
00000856 g     F .text	00000060 __vector_25
0000b1a2 g     F .text	00000058 seglist_getItem
0000e860 g     F .text	0000002a irq_set_handle
0000be9e g     F .text	0000006a string_newFromChar
00003496 g     F .text	0000007a dict_delItem
00013dd8 g     F .text	0000004a usart_initialise
000142c2 g     F .text	0000031a strtol
00012b82 g     F .text	00000026 vfs_setindex
0000d564 g     F .text	00000130 nat_15___bi_dir
0000da86 g     F .text	000000b2 nat_19___bi_len
0000f01c g     F .text	0000012a timer_process_clock
0000e138 g     F .text	00000162 nat_16___bi_eval
0000316e g     F .text	0000008c no_loadFromImg
00012afa g     F .text	0000001a vfs_init
00009d48 g     F .text	00000094 interp_addThread
00009f60 g     F .text	00000032 list_new
0000e340 g     F .text	000001a8 nat_23___bi_sum
0000cc3a g     F .text	00000060 plat_init
000156ce g     F .text	000000cc __divsf3x
00000644  w      .text	00000000 __vector_11
00012dd8 g     F .text	000000b8 basename
0000ca48 g     F .text	000001d6 tuple_slice
00011ce0 g     F .text	0000002c event_notify_irq
000126d8 g     F .text	000000e8 mm_alloc
0000b572 g     F .text	0000007c seq_getSubscript
0000054c  w      .text	00000000 __init
00000644  w      .text	00000000 __vector_54
0000c15c g     F .text	000003fe string_format
00004c02 g     F .text	00000068 heap_getChunk
00000a34 g     F .text	00000004 sched_get_cpu_rq
0000de40 g     F .text	0000002e nat_12_func_co_names
00015566 g       .text	00000018 .hidden __adddi3_s8
00009eac g     F .text	000000b4 list_insert
00014cd8 g     F .text	0000001c write
00015a7e g       .text	00000000 __gtsf2
000120dc g     F .text	0000007a sysctl
00800604 g     O .bss	00000004 pm_lastRescheduleTimestamp
00014cb4 g     F .text	00000024 fprintf
0001551c g       .text	00000038 .hidden __lshrdi3
0000386c g     F .text	00000016 float_negative
00011710 g     F .text	00000070 kill
0000b52c g     F .text	00000046 seq_getLength
000037dc g     F .text	00000090 float_print
00000644  w      .text	00000000 __vector_13
00002dc8 g     F .text	000000a4 class_getAttr
0000de9c g     F .text	00000024 nat_03_sys_gc
0000a632 g     F .text	0000004c mem_cmpn
0000ea0a g     F .text	000000ca clocksource_get_seconds
0000f5fa g     F .text	000000aa systick_get_seconds
008007a0 g       .noinit	00000000 main_stack_ptr_start
0000324e g     F .text	00000082 dict_clear
00015aa2 g       .text	00000000 __mulsf3_pse
00000644  w      .text	00000000 __vector_17
000159e8 g     F .text	00000006 __fp_nan
00000644  w      .text	00000000 __vector_19
00000644  w      .text	00000000 __vector_56
00015370 g       .text	0000005c .hidden __divdi3_moddi3
00000644  w      .text	00000000 __vector_7
000008ba g     F .text	00000004 arch_irq_enable
0000e81a g     F .text	00000046 in_irq_context
0000b0de g     F .text	000000c4 seglist_findEqual
00011484 g     F .text	00000078 thread_alloc
00012ca2 g     F .text	00000054 dirent_add_child
00015d94 g     F .text	00000066 modf
000159c0 g     F .text	0000000c __fp_inf
000155a2 g       .text	00000018 .hidden __cmpdi2_s8
0000a55e g     F .text	00000080 mem_copy
0000a1c2 g     F .text	00000058 list_delItem
0000f878 g     F .text	0000015c hrtimer_create
0000da3e g     F .text	00000048 nat_34_list_append
000109ee g     F .text	00000044 preempt_schedule
000158ea g     F .text	0000009c fmod
0000ae92 g     F .text	0000008a pm_init
00000644  w      .text	00000000 __vector_49
00014e34 g     F .text	00000034 memchr
00000576 g       .text	00000010 .hidden __do_clear_bss
00003882 g     F .text	00000166 float_op
00015518 g       .text	00000004 .hidden __ashrdi3
00000644  w      .text	00000000 __vector_41
000120b0 g     F .text	0000001c sem_try_wait
00011780 g     F .text	00000032 wait
00810000 g       .comment	00000000 __eeprom_end
0000a810 g     F .text	000000dc obj_loadFromImg
00012060 g     F .text	0000001a sem_init
0000a762 g     F .text	000000ae mod_import
0000de6e g     F .text	0000002e nat_13_func_co_consts
0000a21a g     F .text	000000ac list_print
0000a944 g     F .text	00000084 obj_isFalse
00015a9e g     F .text	000000c2 __mulsf3x
0000d09a g     F .text	000000ce nat_00_ipm__getImg
00000ac8 g     F .text	0000000a sched_free_stack_frame
00012544 g     F .text	0000003c __cxa_pure_virtual
00010a32 g     F .text	00000034 sched_start
0000de0a g     F .text	00000036 nat_02_sys_exit
00010b2c g     F .text	00000058 rq_remove_kill_thread
000116c0 g     F .text	00000044 signal
00011fd2 g     F .text	0000003a mutex_lock
000157ea g       .text	00000000 __floatsisf
00800321 g     O .data	00000002 hexChars
000031fa g     F .text	00000054 dict_new
0000c742 g     F .text	0000005a thread_new
00000644  w      .text	00000000 __vector_43
00000000 g       .text	00000000 __vectors
00004c9e g     F .text	00000132 img_findInPaths
0000d06e g     F .text	0000002c nat_28___bi_ismain
000145dc g     F .text	00000016 isupper
00012424 g     F .text	00000006 spinlock_init
00000644  w      .text	00000000 __vector_27
008003a2 g     O .data	00000014 fifo_class
008005c0 g       .data	00000000 __data_end
00011d0c g     F .text	0000017c event_notify
0000d260 g     F .text	000000ba nat_09_string_atoi
0080079d g     O .bss	00000002 gpio_sys_chip
00015b4c g     F .text	00000098 pow
000151a0 g       .text	00000020 .hidden __mulsi3
00012f1e g     F .text	00000032 fs_free_path_split
00014f06 g     F .text	0000001e strncpy
000156ac g       .text	00000000 __eqsf2
00013724 g     F .text	00000006 nat_placeholder_func
0001548a g       .text	00000020 .hidden __negdi2
00005038 g     F .text	000000ba int_pow
00010c8c g     F .text	00000062 thread_queue_wait
0000a2ec g     F .text	000001b2 list_slice
0000d20a g     F .text	00000056 nat_24___bi_type
00000000  w      .text	00000000 __vector_default
000151c0 g       .text	00000028 .hidden __divmodhi4
00013052 g     F .text	000000ba vfs_open
00000ae2 g     F .text	00000016 cpu_switch_context
00000644  w      .text	00000000 __vector_5
00003100 g     F .text	0000006e co_rSetCodeImgAddr
0001229c g     F .text	00000058 panic
0000dcaa g     F .text	00000070 nat_36_list_insert
0000e8d2 g     F .text	00000026 irq_chip_init
0000bf08 g     F .text	000000e2 string_printFormattedBytes
00000644  w      .text	00000000 __vector_33
00011870 g     F .text	000000a4 ipm_post_msg
00011696 g     F .text	0000001e join
0000db38 g     F .text	000000a2 nat_29___bi___init__
0000e548 g     F .text	00000104 nat_26___bi___init__
00004c6a g     F .text	0000000a heap_gcSetAuto
000120ce g     F .text	00000004 kinit
00800477 g     O .data	00000010 romfs
00004948 g     F .text	00000012 heap_freeChunk
00014298 g     F .text	0000002a memcmp
0000f758 g     F .text	00000120 hrtimer_tick
000124b6 g     F .text	00000058 panic_P
00015860 g     F .text	0000007c __floatundisf
0001526a g       .text	00000004 .hidden __tablejump2__
0000e6b8 g     F .text	00000018 irq_restore
00800608 g     O .bss	00000004 pm_timerMsTicks
000145f2 g     F .text	00000018 isalpha
00000644  w      .text	00000000 __vector_47
0000df70 g     F .text	000000be nat_05_sys_heap
00012e90 g     F .text	0000008e basepath
0000054c g       .text	00000000 __ctors_start
00012156 g     F .text	00000004 delay_us
00000644  w      .text	00000000 __vector_52
00000644  w      .text	00000000 __vector_37
00013704 g     F .text	00000002 finalize_init
00012698 g     F .text	00000002 mm_init
00013e7c g     F .text	00000098 dev_set_fops
00004ee6 g     F .text	00000028 int_positive
0000055c g       .text	0000001a .hidden __do_copy_data
000119f2 g     F .text	00000080 ipm_reset_queue
00014ebc g     F .text	00000038 strdup
0000b32e g     F .text	0000000a seglist_appendItem
000127c0 g     F .text	0000003e mm_free
00015c46 g     F .text	0000004a __fp_powser
000156ac g     F .text	00000008 __cmpsf2
0000495a g     F .text	00000012 heap_getAvail
000159fc g     F .text	0000000e __fp_pscB
00015a3c g       .text	00000000 __fp_splitA
008005c0 g       .bss	00000000 __bss_start
00014e98 g     F .text	00000024 memset
0000058e g       .text	00000000 dev_init
00012cf6 g     F .text	00000026 dirent_add_file
00013706 g     F .text	0000001e main
008008a0 g       .noinit	00000000 init_stack_ptr
00012a98 g     F .text	00000038 iob_add
0000cce8 g     F .text	0000001e plat_getByte
0080077c g     O .bss	00000001 vfs_lock
0000097c g     F .text	00000020 arch_delay_us
00012360 g     F .text	00000062 cpu_get_state
000156ac g       .text	00000000 __ltsf2
0000e6d0 g     F .text	0000014a irq_request
00000644  w      .text	00000000 __vector_4
00012b38 g     F .text	00000024 vfs_read
00000644  w      .text	00000000 __vector_44
00000af8 g     F .text	0000003a arch_set_power_mode
0001280a g     F .text	00000046 mm_heap_add_block
00012520 g     F .text	0000000a _ZdaPv
0000e06e g     F .text	0000005e nat_08_sys_time
0000e978 g     F .text	00000092 clocksource_init
00004e10 g     F .text	00000048 int_dup
00012ad0 g     F .text	0000002a iob_remove
000111dc g     F .text	0000006a sched_switch_count
000032d0 g     F .text	0000011c dict_setItem
0001557e g       .text	00000012 .hidden __subdi3
0000f408 g     F .text	0000009a time
000159cc g     F .text	0000001c __fp_mpack
0000b6ce g     F .text	00000072 seqiter_getNext
0000adee g     F .text	000000a4 obj_repr
0000090e g     F .text	00000006 avr_get_sys_clk
00000a30 g     F .text	00000004 cpu_to_rq
000153d2 g       .text	00000016 .hidden __udivdi3_umoddi3
0001525a g       .text	00000010 .hidden __negsi2
00000b32 g     F .text	00000008 arch_hibernate
00015bee g     F .text	00000062 exp
000146ca g     F .text	00000004 putc
0080052d g     O .data	00000010 devfs
00000a3c g     F .text	00000004 sched_get_clock
00002be4 g     F .text	000000a6 class_new
00014ffa g     F .text	000000a6 mount
00015a86 g     F .text	00000004 __mulsf3
0000f6a4 g     F .text	0000001c systick_setup
0000c804 g     F .text	000000c2 tuple_loadFromImg
000117b2 g     F .text	00000030 nice
00004fe6 g     F .text	00000052 int_printHex
00000a40 g     F .text	00000088 sched_create_stack_frame
00000644  w      .text	00000000 __vector_51
00014e68 g     F .text	00000030 strcmp
00010222 g     F .text	00000014 raw_queue_remove_thread
00000000  w      *ABS*	00000000 __heap_end
00015862 g       .text	00000000 __fp_di2sf
0000b5ee g     F .text	000000e0 seq_compare
000035f6 g     F .text	000000e8 dict_update
0000d964 g     F .text	000000da nat_32_dict_values
00015c90 g     F .text	0000000e inverse
00000644  w      .text	00000000 __vector_9
000050f2 g     F .text	00000144 int_divmod
0000b082 g     F .text	0000005c seglist_clear
0001215a g     F .text	00000142 delay
0000ef5e g     F .text	000000be timer_stop_timer
0001391c g     F .text	00000072 atmega_init_gpio
00000644  w      .text	00000000 __vector_2
00015606 g     F .text	000000c0 __addsf3x
0000a4d0 g     F .text	00000040 mem_getInt
00014cf4 g     F .text	00000024 fgetc
0001398e g     F .text	0000003e gpio_chip_init
000114fc g     F .text	00000046 thread_start
0000dc20 g     F .text	0000008a nat_35_list_index
00015590 g       .text	00000012 .hidden __cmpdi2
0001253c g     F .text	00000008 __cxa_guard_release
00015a7e g     F .text	00000008 __gesf2
0000b972 g     F .text	00000044 sli_btoa16
00009ddc g     F .text	00000006 interp_setRescheduleFlag
00002d22 g     F .text	000000a6 class_method
00011f5c g     F .text	00000028 mutex_wait
00000644  w      .text	00000000 __vector_21
0000dbda g     F .text	00000046 nat_30_dict_clear
00009e70 g     F .text	0000003c list_getItem
000008d2 g     F .text	00000010 arch_irq_restore_flags
00000bb2 g     F .text	00000060 __vector_15
0000e0cc g     F .text	0000006c nat_14___bi_chr
0001200c g     F .text	0000004a mutex_unlock
00000644  w      .text	00000000 __vector_36
00011914 g     F .text	000000de ipm_get_msg
00009de2 g     F .text	0000008e list_append
0000ab20 g     F .text	00000158 obj_isIn
000159ee g     F .text	0000000e __fp_pscA
0000496c g     F .text	00000012 heap_getSize
00014c94 g     F .text	00000020 fputc
0000072e g     F .text	00000060 __vector_29
0001401c g     F .text	00000024 printf_P
0000b338 g     F .text	0000003e seglist_new
0000e64c g     F .text	00000036 nat_33_dict_update
0000b7ec g     F .text	00000030 sli_strcmp
00010382 g     F .text	00000040 rq_add_thread_no_lock
0000ead4 g     F .text	00000052 clocksource_get_by_name
00800fa0 g       .noinit	00000000 __heap_start
0000b81c g     F .text	00000032 sli_strncmp
00012580 g     F .text	00000002 __cxa_guard_abort
0000fc5a g     F .text	00000064 rr_shared_queue_remove
0000b862 g     F .text	00000018 sli_puts
000122f4 g     F .text	0000006c cpu_notify
0000054c g       .text	00000000 __dtors_start
0000dec0 g     F .text	0000004e nat_04_sys_getb
00000906 g     F .text	00000002 cpu_request_irq
000103c2 g     F .text	000000a4 irq_thread_signal
0000054c g       .text	00000000 __ctors_end
0000f4a2 g     F .text	00000068 time_inc
0000e88a g     F .text	00000048 irq_chip_add_irq
0001522c g       .text	0000002e .hidden __divmodsi4
00014622 g     F .text	00000016 isdigit
0000edea g     F .text	00000174 timer_create_timer
0000d31a g     F .text	0000015c nat_10_string_count
00010cee g     F .text	0000005c queue_remove_thread
00000644  w      .text	00000000 __vector_40
008005c0 g       .data	00000000 _edata
00000660 g       .text	00000000 avr_switch_context
0000afd4 g     F .text	000000ae pm_vmPeriodic
00011836 g     F .text	0000003a ipm_queue_init
00015298 g       .text	0000000a .hidden __usmulhisi3_tail
00800fa0 g       .noinit	00000000 _end
0001247e g     F .text	00000038 spinlock_release
00002ae4 g     F .text	0000003c bytearray_getItem
0001310c g     F .text	00000044 vfs_close
00012d1c g     F .text	00000046 dirent_find_file
000153e8 g       .text	000000a2 .hidden __udivmod64
00012096 g     F .text	0000001a sem_signal
00000644  w      .text	00000000 __vector_8
00000644  w      .text	00000000 __vector_26
00010236 g     F .text	00000084 raw_rq_remove_wake_thread
000156d2 g       .text	00000000 __divsf3_pse
0000a9c8 g     F .text	00000158 obj_compare
0000f2aa g     F .text	0000015e time_isindst
008005c0 g     O .bss	00000002 test_sys_tick
00000644  w      .text	00000000 __vector_48
0001250e g     F .text	00000004 _Znwj
000112a4 g     F .text	00000018 should_resched
00014638 g     F .text	00000004 kmalloc
00014dac g     F .text	00000070 puts_P
00003b46 g     F .text	00000176 frame_new
0000df0e g     F .text	00000062 nat_21___bi_ord
00015dfa  w      .text	00000000 exit
0000e02e g     F .text	00000040 nat_07_sys_runInThread
0000a8ec g     F .text	00000058 obj_loadFromImgObj
00011f84 g     F .text	0000004e mutex_wait_tmo
000157e6 g     F .text	0000007a __floatunsisf
000151c0 g       .text	00000000 .hidden _div
0000f50a g     F .text	0000007c stime
00004e58 g     F .text	0000008e int_new
0000dd1a g     F .text	000000a8 nat_37_list_pop
000151e8 g       .text	00000044 .hidden __udivmodsi4
00012c02 g     F .text	000000a0 dirent_find
0000c79c g     F .text	00000068 tuple_new
0000d022 g     F .text	00000026 nat_17___bi_globals
00003796 g     F .text	00000046 float_new
00004c74 g     F .text	00000024 heap_gcPushTempRoot
008003b6 g     O .data	00000014 edf_class
000008e2 g     F .text	00000024 raw_irq_enabled_flags
000136ce g     F .text	00000014 ramfs_init
00011b42 g     F .text	0000011c raw_event_wait
0000b84e g     F .text	00000014 sli_memset
0001536a g       .text	00000004 .hidden __moddi3
0000d168 g     F .text	00000016 nat_01_ipm_x04
0001578e g     F .text	00000058 __fixunssfsi
00015dfa g       .text	00000000 _exit
000033ec g     F .text	000000aa dict_getItem
00012f50 g     F .text	00000102 fs_split_path
0000e29a g     F .text	000000a6 nat_27___bi_send
000039e8 g     F .text	0000015e float_compare
0000484c g     F .text	000000fc heap_init
000152b8 g       .text	000000a0 .hidden __muldi3
00000644  w      .text	00000000 __vector_14
0000a2c6 g     F .text	00000026 list_clear
00014e1c g     F .text	00000018 strlen
0000ccac g     F .text	00000028 plat_memGetByte
000008be g     F .text	00000004 arch_local_irq_enable
00000644  w      .text	00000000 __vector_53
00000644  w      .text	00000000 __vector_10
0000eb26 g     F .text	00000098 raw_clocksource_add_timer
00012ba8 g     F .text	0000005a dirent_create
0080077d g     O .bss	00000020 __iob
00005236 g     F .text	00000082 interp_reschedule
0000e69e g     F .text	0000001a irq_save_and_disable
00010de0 g     F .text	00000054 thread_add_to_kill_q
00003cbc g     F .text	000000cc func_new
0001164a g     F .text	0000004c thread_create
00014c68 g     F .text	0000002c fputs
00000644  w      .text	00000000 __vector_50
00000644  w      .text	00000000 __vector_16
00800200 g       .data	00000000 __data_start
00012998 g     F .text	00000062 vfs_path_to_fs
00004dd0 g     F .text	00000040 img_appendToPath
00000644  w      .text	00000000 __vector_18
000102ba g     F .text	00000084 raw_rq_remove_kill_thread
0000c55a g     F .text	000001e8 string_slice
00010d8c g     F .text	00000054 thread_add_to_wake_q
0000b1fa g     F .text	00000134 seglist_insertItem
0000a156 g     F .text	0000006c list_remove
00011246 g     F .text	0000005e sched_yield
00000644  w      .text	00000000 __vector_20
0000b7c4 g     F .text	00000016 sli_memcpy
0001252a g     F .text	00000012 __cxa_guard_acquire
00002ba2 g     F .text	00000042 bytearray_print
000150e0 g     F .text	000000c0 mkdir
000104de g     F .text	00000024 rq_update_clock
000155e4 g       .text	00000000 __addsf3
00000644  w      .text	00000000 __vector_42
00000c12 g     F .text	00000006 cpu_get_id
0000e4e8 g     F .text	00000060 nat_25___bi_Co
00012d9c g     F .text	0000003c dirent_free
000127fe g     F .text	0000000c raw_mm_heap_add_block
000154aa g       .text	00000038 .hidden __prologue_saves__
00002b20 g     F .text	00000082 bytearray_setItem
00012850 g     F .text	00000056 mm_heap_available
0001487c g     F .text	000003ec vfprintf
0000497e g     F .text	00000284 heap_gcRun
00015a72 g       .text	00000000 __fp_szero
0080058c g     O .data	00000002 usr_nat_fxn_table



Disassembly of section .text:

00000000 <__vectors>:
       0:	0c 94 a6 02 	jmp	0x54c	; 0x54c <__ctors_end>
       4:	0c 94 22 03 	jmp	0x644	; 0x644 <__bad_interrupt>
       8:	0c 94 22 03 	jmp	0x644	; 0x644 <__bad_interrupt>
       c:	0c 94 22 03 	jmp	0x644	; 0x644 <__bad_interrupt>
      10:	0c 94 22 03 	jmp	0x644	; 0x644 <__bad_interrupt>
      14:	0c 94 22 03 	jmp	0x644	; 0x644 <__bad_interrupt>
      18:	0c 94 22 03 	jmp	0x644	; 0x644 <__bad_interrupt>
      1c:	0c 94 22 03 	jmp	0x644	; 0x644 <__bad_interrupt>
      20:	0c 94 22 03 	jmp	0x644	; 0x644 <__bad_interrupt>
      24:	0c 94 22 03 	jmp	0x644	; 0x644 <__bad_interrupt>
      28:	0c 94 22 03 	jmp	0x644	; 0x644 <__bad_interrupt>
      2c:	0c 94 22 03 	jmp	0x644	; 0x644 <__bad_interrupt>
      30:	0c 94 22 03 	jmp	0x644	; 0x644 <__bad_interrupt>
      34:	0c 94 22 03 	jmp	0x644	; 0x644 <__bad_interrupt>
      38:	0c 94 22 03 	jmp	0x644	; 0x644 <__bad_interrupt>
      3c:	0c 94 d9 05 	jmp	0xbb2	; 0xbb2 <__vector_15>
      40:	0c 94 22 03 	jmp	0x644	; 0x644 <__bad_interrupt>
      44:	0c 94 22 03 	jmp	0x644	; 0x644 <__bad_interrupt>
      48:	0c 94 22 03 	jmp	0x644	; 0x644 <__bad_interrupt>
      4c:	0c 94 22 03 	jmp	0x644	; 0x644 <__bad_interrupt>
      50:	0c 94 22 03 	jmp	0x644	; 0x644 <__bad_interrupt>
      54:	0c 94 22 03 	jmp	0x644	; 0x644 <__bad_interrupt>
      58:	0c 94 22 03 	jmp	0x644	; 0x644 <__bad_interrupt>
      5c:	0c 94 ce 04 	jmp	0x99c	; 0x99c <__vector_23>
      60:	0c 94 f9 03 	jmp	0x7f2	; 0x7f2 <__vector_24>
      64:	0c 94 2b 04 	jmp	0x856	; 0x856 <__vector_25>
      68:	0c 94 22 03 	jmp	0x644	; 0x644 <__bad_interrupt>
      6c:	0c 94 22 03 	jmp	0x644	; 0x644 <__bad_interrupt>
      70:	0c 94 22 03 	jmp	0x644	; 0x644 <__bad_interrupt>
      74:	0c 94 97 03 	jmp	0x72e	; 0x72e <__vector_29>
      78:	0c 94 22 03 	jmp	0x644	; 0x644 <__bad_interrupt>
      7c:	0c 94 22 03 	jmp	0x644	; 0x644 <__bad_interrupt>
      80:	0c 94 22 03 	jmp	0x644	; 0x644 <__bad_interrupt>
      84:	0c 94 22 03 	jmp	0x644	; 0x644 <__bad_interrupt>
      88:	0c 94 22 03 	jmp	0x644	; 0x644 <__bad_interrupt>
      8c:	0c 94 22 03 	jmp	0x644	; 0x644 <__bad_interrupt>
      90:	0c 94 22 03 	jmp	0x644	; 0x644 <__bad_interrupt>
      94:	0c 94 22 03 	jmp	0x644	; 0x644 <__bad_interrupt>
      98:	0c 94 22 03 	jmp	0x644	; 0x644 <__bad_interrupt>
      9c:	0c 94 c7 03 	jmp	0x78e	; 0x78e <__vector_39>
      a0:	0c 94 22 03 	jmp	0x644	; 0x644 <__bad_interrupt>
      a4:	0c 94 22 03 	jmp	0x644	; 0x644 <__bad_interrupt>
      a8:	0c 94 22 03 	jmp	0x644	; 0x644 <__bad_interrupt>
      ac:	0c 94 22 03 	jmp	0x644	; 0x644 <__bad_interrupt>
      b0:	0c 94 22 03 	jmp	0x644	; 0x644 <__bad_interrupt>
      b4:	0c 94 22 03 	jmp	0x644	; 0x644 <__bad_interrupt>
      b8:	0c 94 22 03 	jmp	0x644	; 0x644 <__bad_interrupt>
      bc:	0c 94 22 03 	jmp	0x644	; 0x644 <__bad_interrupt>
      c0:	0c 94 22 03 	jmp	0x644	; 0x644 <__bad_interrupt>
      c4:	0c 94 22 03 	jmp	0x644	; 0x644 <__bad_interrupt>
      c8:	0c 94 22 03 	jmp	0x644	; 0x644 <__bad_interrupt>
      cc:	0c 94 22 03 	jmp	0x644	; 0x644 <__bad_interrupt>
      d0:	0c 94 22 03 	jmp	0x644	; 0x644 <__bad_interrupt>
      d4:	0c 94 22 03 	jmp	0x644	; 0x644 <__bad_interrupt>
      d8:	0c 94 22 03 	jmp	0x644	; 0x644 <__bad_interrupt>
      dc:	0c 94 22 03 	jmp	0x644	; 0x644 <__bad_interrupt>
      e0:	0c 94 22 03 	jmp	0x644	; 0x644 <__bad_interrupt>
      e4:	07 63       	ori	r16, 0x37	; 55
      e6:	42 36       	cpi	r20, 0x62	; 98
      e8:	b7 9b       	sbis	0x16, 7	; 22
      ea:	d8 a7       	std	Y+40, r29	; 0x28
      ec:	1a 39       	cpi	r17, 0x9A	; 154
      ee:	68 56       	subi	r22, 0x68	; 104
      f0:	18 ae       	std	Y+56, r1	; 0x38
      f2:	ba ab       	std	Y+50, r27	; 0x32
      f4:	55 8c       	ldd	r5, Z+29	; 0x1d
      f6:	1d 3c       	cpi	r17, 0xCD	; 205
      f8:	b7 cc       	rjmp	.-1682   	; 0xfffffa68 <__eeprom_end+0xff7efa68>
      fa:	57 63       	ori	r21, 0x37	; 55
      fc:	bd 6d       	ori	r27, 0xDD	; 221
      fe:	ed fd       	.word	0xfded	; ????
     100:	75 3e       	cpi	r23, 0xE5	; 229
     102:	f6 17       	cp	r31, r22
     104:	72 31       	cpi	r23, 0x12	; 18
     106:	bf 00       	.word	0x00bf	; ????
     108:	00 00       	nop
     10a:	80 3f       	cpi	r24, 0xF0	; 240
     10c:	08 00       	.word	0x0008	; ????
     10e:	00 00       	nop
     110:	be 92       	st	-X, r11
     112:	24 49       	sbci	r18, 0x94	; 148
     114:	12 3e       	cpi	r17, 0xE2	; 226
     116:	ab aa       	std	Y+51, r10	; 0x33
     118:	aa 2a       	or	r10, r26
     11a:	be cd       	rjmp	.-1156   	; 0xfffffc98 <__eeprom_end+0xff7efc98>
     11c:	cc cc       	rjmp	.-1640   	; 0xfffffab6 <__eeprom_end+0xff7efab6>
     11e:	4c 3e       	cpi	r20, 0xEC	; 236
     120:	00 00       	nop
     122:	00 80       	ld	r0, Z
     124:	be ab       	std	Y+54, r27	; 0x36
     126:	aa aa       	std	Y+50, r10	; 0x32
     128:	aa 3e       	cpi	r26, 0xEA	; 234
     12a:	00 00       	nop
     12c:	00 00       	nop
     12e:	bf 00       	.word	0x00bf	; ????
     130:	00 00       	nop
     132:	80 3f       	cpi	r24, 0xF0	; 240
     134:	00 00       	nop
     136:	00 00       	nop
     138:	00 08       	sbc	r0, r0
     13a:	41 78       	andi	r20, 0x81	; 129
     13c:	d3 bb       	out	0x13, r29	; 19
     13e:	43 87       	std	Z+11, r20	; 0x0b
     140:	d1 13       	cpse	r29, r17
     142:	3d 19       	sub	r19, r13
     144:	0e 3c       	cpi	r16, 0xCE	; 206
     146:	c3 bd       	out	0x23, r28	; 35
     148:	42 82       	std	Z+2, r4	; 0x02
     14a:	ad 2b       	or	r26, r29
     14c:	3e 68       	ori	r19, 0x8E	; 142
     14e:	ec 82       	std	Y+4, r14	; 0x04
     150:	76 be       	out	0x36, r7	; 54
     152:	d9 8f       	std	Y+25, r29	; 0x19
     154:	e1 a9       	ldd	r30, Z+49	; 0x31
     156:	3e 4c       	sbci	r19, 0xCE	; 206
     158:	80 ef       	ldi	r24, 0xF0	; 240
     15a:	ff be       	out	0x3f, r15	; 63
     15c:	01 c4       	rjmp	.+2050   	; 0x960 <avr_timer_init+0x4c>
     15e:	ff 7f       	andi	r31, 0xFF	; 255
     160:	3f 00       	.word	0x003f	; ????
     162:	00 00       	nop
	...

00000166 <atmega_gpio_ddrs>:
     166:	21 00       	.word	0x0021	; ????
     168:	24 00       	.word	0x0024	; ????
     16a:	27 00       	.word	0x0027	; ????
     16c:	2a 00       	.word	0x002a	; ????
     16e:	2d 00       	.word	0x002d	; ????
     170:	30 00       	.word	0x0030	; ????
     172:	33 00       	.word	0x0033	; ????
     174:	01 01       	movw	r0, r2
     176:	04 01       	movw	r0, r8
     178:	07 01       	movw	r0, r14
     17a:	0a 01       	movw	r0, r20

0000017c <atmega_gpio_pins>:
     17c:	20 00       	.word	0x0020	; ????
     17e:	23 00       	.word	0x0023	; ????
     180:	26 00       	.word	0x0026	; ????
     182:	29 00       	.word	0x0029	; ????
     184:	2c 00       	.word	0x002c	; ????
     186:	2f 00       	.word	0x002f	; ????
     188:	32 00       	.word	0x0032	; ????
     18a:	00 01       	movw	r0, r0
     18c:	03 01       	movw	r0, r6
     18e:	06 01       	movw	r0, r12
     190:	09 01       	movw	r0, r18

00000192 <atmega_gpio_ports>:
     192:	22 00       	.word	0x0022	; ????
     194:	25 00       	.word	0x0025	; ????
     196:	28 00       	.word	0x0028	; ????
     198:	2b 00       	.word	0x002b	; ????
     19a:	2e 00       	.word	0x002e	; ????
     19c:	31 00       	.word	0x0031	; ????
     19e:	34 00       	.word	0x0034	; ????
     1a0:	02 01       	movw	r0, r4
     1a2:	05 01       	movw	r0, r10
     1a4:	08 01       	movw	r0, r16
     1a6:	0b 01       	movw	r0, r22

000001a8 <__trampolines_start>:
     1a8:	0c 94 a8 98 	jmp	0x13150	; 0x13150 <romfs_getc>
     1ac:	0c 94 dc 22 	jmp	0x45b8	; 0x45b8 <heap_gcMarkObj+0xdc>
     1b0:	0c 94 75 56 	jmp	0xacea	; 0xacea <obj_print+0x72>
     1b4:	0c 94 0e 24 	jmp	0x481c	; 0x481c <heap_gcMarkObj+0x340>
     1b8:	0c 94 fb 38 	jmp	0x71f6	; 0x71f6 <interpret+0x1f3e>
     1bc:	0c 94 55 2b 	jmp	0x56aa	; 0x56aa <interpret+0x3f2>
     1c0:	0c 94 b9 22 	jmp	0x4572	; 0x4572 <heap_gcMarkObj+0x96>
     1c4:	0c 94 e1 6e 	jmp	0xddc2	; 0xddc2 <nat_38_list_remove>
     1c8:	0c 94 b6 43 	jmp	0x876c	; 0x876c <interpret+0x34b4>
     1cc:	0c 94 4a 8d 	jmp	0x11a94	; 0x11a94 <event_tmo>
     1d0:	0c 94 b8 9a 	jmp	0x13570	; 0x13570 <ramfs_close>
     1d4:	0c 94 c3 47 	jmp	0x8f86	; 0x8f86 <interpret+0x3cce>
     1d8:	0c 94 8d 69 	jmp	0xd31a	; 0xd31a <nat_10_string_count>
     1dc:	0c 94 87 6f 	jmp	0xdf0e	; 0xdf0e <nat_21___bi_ord>
     1e0:	0c 94 92 9b 	jmp	0x13724	; 0x13724 <nat_placeholder_func>
     1e4:	0c 94 02 47 	jmp	0x8e04	; 0x8e04 <interpret+0x3b4c>
     1e8:	0c 94 5b 80 	jmp	0x100b6	; 0x100b6 <edf_next_runnable>
     1ec:	0c 94 18 48 	jmp	0x9030	; 0x9030 <interpret+0x3d78>
     1f0:	0c 94 55 6e 	jmp	0xdcaa	; 0xdcaa <nat_36_list_insert>
     1f4:	0c 94 26 73 	jmp	0xe64c	; 0xe64c <nat_33_dict_update>
     1f8:	0c 94 95 7e 	jmp	0xfd2a	; 0xfd2a <fifo_add_thread>
     1fc:	0c 94 0b a0 	jmp	0x14016	; 0x14016 <devfs_ioctl>
     200:	0c 94 e8 3e 	jmp	0x7dd0	; 0x7dd0 <interpret+0x2b18>
     204:	0c 94 7f 9a 	jmp	0x134fe	; 0x134fe <ramfs_write>
     208:	0c 94 67 1d 	jmp	0x3ace	; 0x3ace <float_compare+0xe6>
     20c:	0c 94 44 80 	jmp	0x10088	; 0x10088 <edf_add_thread>
     210:	0c 94 9c 70 	jmp	0xe138	; 0xe138 <nat_16___bi_eval>
     214:	0c 94 2a 7f 	jmp	0xfe54	; 0xfe54 <edf_thread_after>
     218:	0c 94 de 7e 	jmp	0xfdbc	; 0xfdbc <fifo_next_runnable>
     21c:	0c 94 8d 6e 	jmp	0xdd1a	; 0xdd1a <nat_37_list_pop>
     220:	0c 94 18 24 	jmp	0x4830	; 0x4830 <heap_gcMarkObj+0x354>
     224:	0c 94 0d 37 	jmp	0x6e1a	; 0x6e1a <interpret+0x1b62>
     228:	0c 94 a3 3c 	jmp	0x7946	; 0x7946 <interpret+0x268e>
     22c:	0c 94 6e 1d 	jmp	0x3adc	; 0x3adc <float_compare+0xf4>
     230:	0c 94 50 9c 	jmp	0x138a0	; 0x138a0 <atmega_dir_out>
     234:	0c 94 cc 3f 	jmp	0x7f98	; 0x7f98 <interpret+0x2ce0>
     238:	0c 94 6d 54 	jmp	0xa8da	; 0xa8da <obj_loadFromImg+0xca>
     23c:	0c 94 66 70 	jmp	0xe0cc	; 0xe0cc <nat_14___bi_chr>
     240:	0c 94 37 68 	jmp	0xd06e	; 0xd06e <nat_28___bi_ismain>
     244:	0c 94 88 9d 	jmp	0x13b10	; 0x13b10 <atmega_usart_getc>
     248:	0c 94 8d 56 	jmp	0xad1a	; 0xad1a <obj_print+0xa2>
     24c:	0c 94 41 80 	jmp	0x10082	; 0x10082 <edf_thread_queue_add>
     250:	0c 94 4f 32 	jmp	0x649e	; 0x649e <interpret+0x11e6>
     254:	0c 94 c3 a9 	jmp	0x15386	; 0x15386 <__divdi3_moddi3+0x16>
     258:	0c 94 20 9a 	jmp	0x13440	; 0x13440 <ramfs_ioctl>
     25c:	0c 94 16 2a 	jmp	0x542c	; 0x542c <interpret+0x174>
     260:	0c 94 8e 2b 	jmp	0x571c	; 0x571c <interpret+0x464>
     264:	0c 94 57 54 	jmp	0xa8ae	; 0xa8ae <obj_loadFromImg+0x9e>
     268:	0c 94 c0 80 	jmp	0x10180	; 0x10180 <sched_sleep_timeout>
     26c:	0c 94 e4 45 	jmp	0x8bc8	; 0x8bc8 <interpret+0x3910>
     270:	0c 94 0f 66 	jmp	0xcc1e	; 0xcc1e <platform_timer_handle>
     274:	0c 94 bf 23 	jmp	0x477e	; 0x477e <heap_gcMarkObj+0x2a2>
     278:	0c 94 dd 38 	jmp	0x71ba	; 0x71ba <interpret+0x1f02>
     27c:	0c 94 11 68 	jmp	0xd022	; 0xd022 <nat_17___bi_globals>
     280:	0c 94 85 56 	jmp	0xad0a	; 0xad0a <obj_print+0x92>
     284:	0c 94 7d 2a 	jmp	0x54fa	; 0x54fa <interpret+0x242>
     288:	0c 94 4d 3b 	jmp	0x769a	; 0x769a <interpret+0x23e2>
     28c:	0c 94 5f 9e 	jmp	0x13cbe	; 0x13cbe <usart_write>
     290:	0c 94 b4 54 	jmp	0xa968	; 0xa968 <obj_isFalse+0x24>
     294:	0c 94 3b 6a 	jmp	0xd476	; 0xd476 <nat_11_string_find>
     298:	0c 94 79 4e 	jmp	0x9cf2	; 0x9cf2 <interpret+0x4a3a>
     29c:	0c 94 60 6f 	jmp	0xdec0	; 0xdec0 <nat_04_sys_getb>
     2a0:	0c 94 6c 4c 	jmp	0x98d8	; 0x98d8 <interpret+0x4620>
     2a4:	0c 94 30 69 	jmp	0xd260	; 0xd260 <nat_09_string_atoi>
     2a8:	0c 94 1b 9e 	jmp	0x13c36	; 0x13c36 <usart_getc>
     2ac:	0c 94 05 6f 	jmp	0xde0a	; 0xde0a <nat_02_sys_exit>
     2b0:	0c 94 13 3a 	jmp	0x7426	; 0x7426 <interpret+0x216e>
     2b4:	0c 94 4d 68 	jmp	0xd09a	; 0xd09a <nat_00_ipm__getImg>
     2b8:	0c 94 52 1d 	jmp	0x3aa4	; 0x3aa4 <float_compare+0xbc>
     2bc:	0c 94 8b 2f 	jmp	0x5f16	; 0x5f16 <interpret+0xc5e>
     2c0:	0c 94 b5 84 	jmp	0x1096a	; 0x1096a <irq_handle_fn>
     2c4:	0c 94 3e 38 	jmp	0x707c	; 0x707c <interpret+0x1dc4>
     2c8:	0c 94 89 39 	jmp	0x7312	; 0x7312 <interpret+0x205a>
     2cc:	0c 94 10 6e 	jmp	0xdc20	; 0xdc20 <nat_35_list_index>
     2d0:	0c 94 cd 54 	jmp	0xa99a	; 0xa99a <obj_isFalse+0x56>
     2d4:	0c 94 91 56 	jmp	0xad22	; 0xad22 <obj_print+0xaa>
     2d8:	0c 94 b6 2e 	jmp	0x5d6c	; 0x5d6c <interpret+0xab4>
     2dc:	0c 94 f3 98 	jmp	0x131e6	; 0x131e6 <romfs_close>
     2e0:	0c 94 c6 9b 	jmp	0x1378c	; 0x1378c <atmega_get_dir>
     2e4:	0c 94 d3 9a 	jmp	0x135a6	; 0x135a6 <ramfs_create>
     2e8:	0c 94 37 70 	jmp	0xe06e	; 0xe06e <nat_08_sys_time>
     2ec:	0c 94 4e 38 	jmp	0x709c	; 0x709c <interpret+0x1de4>
     2f0:	0c 94 12 9f 	jmp	0x13e24	; 0x13e24 <dev_release>
     2f4:	0c 94 b6 54 	jmp	0xa96c	; 0xa96c <obj_isFalse+0x28>
     2f8:	0c 94 1a 9d 	jmp	0x13a34	; 0x13a34 <atmega_usart_putc>
     2fc:	0c 94 6b 39 	jmp	0x72d6	; 0x72d6 <interpret+0x201e>
     300:	0c 94 d0 39 	jmp	0x73a0	; 0x73a0 <interpret+0x20e8>
     304:	0c 94 36 54 	jmp	0xa86c	; 0xa86c <obj_loadFromImg+0x5c>
     308:	0c 94 4d 71 	jmp	0xe29a	; 0xe29a <nat_27___bi_send>
     30c:	0c 94 b0 9d 	jmp	0x13b60	; 0x13b60 <usart_rx_irq>
     310:	0c 94 1c 23 	jmp	0x4638	; 0x4638 <heap_gcMarkObj+0x15c>
     314:	0c 94 44 46 	jmp	0x8c88	; 0x8c88 <interpret+0x39d0>
     318:	0c 94 24 68 	jmp	0xd048	; 0xd048 <nat_20___bi_locals>
     31c:	0c 94 5d 55 	jmp	0xaaba	; 0xaaba <obj_compare+0xf2>
     320:	0c 94 81 3f 	jmp	0x7f02	; 0x7f02 <interpret+0x2c4a>
     324:	0c 94 59 47 	jmp	0x8eb2	; 0x8eb2 <interpret+0x3bfa>
     328:	0c 94 be 32 	jmp	0x657c	; 0x657c <interpret+0x12c4>
     32c:	0c 94 a5 86 	jmp	0x10d4a	; 0x10d4a <queue_wait_tmo>
     330:	0c 94 c5 54 	jmp	0xa98a	; 0xa98a <obj_isFalse+0x46>
     334:	0c 94 38 9d 	jmp	0x13a70	; 0x13a70 <atmega_usart_write>
     338:	0c 94 89 56 	jmp	0xad12	; 0xad12 <obj_print+0x9a>
     33c:	0c 94 9f 36 	jmp	0x6d3e	; 0x6d3e <interpret+0x1a86>
     340:	0c 94 29 54 	jmp	0xa852	; 0xa852 <obj_loadFromImg+0x42>
     344:	0c 94 69 56 	jmp	0xacd2	; 0xacd2 <obj_print+0x5a>
     348:	0c 94 ac 7b 	jmp	0xf758	; 0xf758 <hrtimer_tick>
     34c:	0c 94 92 7e 	jmp	0xfd24	; 0xfd24 <fifo_thread_queue_add>
     350:	0c 94 36 7f 	jmp	0xfe6c	; 0xfe6c <edf_rm_thread>
     354:	0c 94 b2 6a 	jmp	0xd564	; 0xd564 <nat_15___bi_dir>
     358:	0c 94 ae 43 	jmp	0x875c	; 0x875c <interpret+0x34a4>
     35c:	0c 94 ef 7e 	jmp	0xfdde	; 0xfdde <edf_preempt_chk>
     360:	0c 94 79 56 	jmp	0xacf2	; 0xacf2 <obj_print+0x7a>
     364:	0c 94 40 48 	jmp	0x9080	; 0x9080 <interpret+0x3dc8>
     368:	0c 94 5b 3a 	jmp	0x74b6	; 0x74b6 <interpret+0x21fe>
     36c:	0c 94 c6 43 	jmp	0x878c	; 0x878c <interpret+0x34d4>
     370:	0c 94 2b 23 	jmp	0x4656	; 0x4656 <heap_gcMarkObj+0x17a>
     374:	0c 94 ce 43 	jmp	0x879c	; 0x879c <interpret+0x34e4>
     378:	0c 94 4c 55 	jmp	0xaa98	; 0xaa98 <obj_compare+0xd0>
     37c:	0c 94 46 85 	jmp	0x10a8c	; 0x10a8c <idle_thread_func>
     380:	0c 94 25 2b 	jmp	0x564a	; 0x564a <interpret+0x392>
     384:	0c 94 82 4e 	jmp	0x9d04	; 0x9d04 <interpret+0x4a4c>
     388:	0c 94 59 1d 	jmp	0x3ab2	; 0x3ab2 <float_compare+0xca>
     38c:	0c 94 84 55 	jmp	0xab08	; 0xab08 <obj_compare+0x140>
     390:	0c 94 26 40 	jmp	0x804c	; 0x804c <interpret+0x2d94>
     394:	0c 94 62 54 	jmp	0xa8c4	; 0xa8c4 <obj_loadFromImg+0xb4>
     398:	0c 94 7c 74 	jmp	0xe8f8	; 0xe8f8 <irq_handle>
     39c:	0c 94 14 45 	jmp	0x8a28	; 0x8a28 <interpret+0x3770>
     3a0:	0c 94 be 43 	jmp	0x877c	; 0x877c <interpret+0x34c4>
     3a4:	0c 94 29 9b 	jmp	0x13652	; 0x13652 <ramfs_open>
     3a8:	0c 94 98 22 	jmp	0x4530	; 0x4530 <heap_gcMarkObj+0x54>
     3ac:	0c 94 e7 56 	jmp	0xadce	; 0xadce <obj_print+0x156>
     3b0:	0c 94 c0 98 	jmp	0x13180	; 0x13180 <romfs_read>
     3b4:	0c 94 da 3d 	jmp	0x7bb4	; 0x7bb4 <interpret+0x28fc>
     3b8:	0c 94 5a 40 	jmp	0x80b4	; 0x80b4 <interpret+0x2dfc>
     3bc:	0c 94 0a 4e 	jmp	0x9c14	; 0x9c14 <interpret+0x495c>
     3c0:	0c 94 b4 68 	jmp	0xd168	; 0xd168 <nat_01_ipm_x04>
     3c4:	0c 94 65 46 	jmp	0x8cca	; 0x8cca <interpret+0x3a12>
     3c8:	0c 94 c8 29 	jmp	0x5390	; 0x5390 <interpret+0xd8>
     3cc:	0c 94 9c 6d 	jmp	0xdb38	; 0xdb38 <nat_29___bi___init__>
     3d0:	0c 94 66 2e 	jmp	0x5ccc	; 0x5ccc <interpret+0xa14>
     3d4:	0c 94 b7 4d 	jmp	0x9b6e	; 0x9b6e <interpret+0x48b6>
     3d8:	0c 94 93 2c 	jmp	0x5926	; 0x5926 <interpret+0x66e>
     3dc:	0c 94 a0 71 	jmp	0xe340	; 0xe340 <nat_23___bi_sum>
     3e0:	0c 94 df 99 	jmp	0x133be	; 0x133be <ramfs_ftell>
     3e4:	0c 94 4c 54 	jmp	0xa898	; 0xa898 <obj_loadFromImg+0x88>
     3e8:	0c 94 7d 55 	jmp	0xaafa	; 0xaafa <obj_compare+0x132>
     3ec:	0c 94 4b 1d 	jmp	0x3a96	; 0x3a96 <float_compare+0xae>
     3f0:	0c 94 20 9c 	jmp	0x13840	; 0x13840 <atmega_set_pin>
     3f4:	0c 94 61 31 	jmp	0x62c2	; 0x62c2 <interpret+0x100a>
     3f8:	0c 94 59 33 	jmp	0x66b2	; 0x66b2 <interpret+0x13fa>
     3fc:	0c 94 a7 7e 	jmp	0xfd4e	; 0xfd4e <fifo_thread_after>
     400:	0c 94 f6 34 	jmp	0x69ec	; 0x69ec <interpret+0x1734>
     404:	0c 94 ca 46 	jmp	0x8d94	; 0x8d94 <interpret+0x3adc>
     408:	0c 94 45 6c 	jmp	0xd88a	; 0xd88a <nat_31_dict_keys>
     40c:	0c 94 37 3e 	jmp	0x7c6e	; 0x7c6e <interpret+0x29b6>
     410:	0c 94 d6 43 	jmp	0x87ac	; 0x87ac <interpret+0x34f4>
     414:	0c 94 01 2c 	jmp	0x5802	; 0x5802 <interpret+0x54a>
     418:	0c 94 ca 7e 	jmp	0xfd94	; 0xfd94 <fifo_preempt_chk>
     41c:	0c 94 75 1d 	jmp	0x3aea	; 0x3aea <float_compare+0x102>
     420:	0c 94 03 24 	jmp	0x4806	; 0x4806 <heap_gcMarkObj+0x32a>
     424:	0c 94 01 3b 	jmp	0x7602	; 0x7602 <interpret+0x234a>
     428:	0c 94 6f 2c 	jmp	0x58de	; 0x58de <interpret+0x626>
     42c:	0c 94 47 9b 	jmp	0x1368e	; 0x1368e <ramfs_lseek>
     430:	0c 94 78 55 	jmp	0xaaf0	; 0xaaf0 <obj_compare+0x128>
     434:	0c 94 b1 22 	jmp	0x4562	; 0x4562 <heap_gcMarkObj+0x86>
     438:	0c 94 4a 6b 	jmp	0xd694	; 0xd694 <nat_22___bi_range>
     43c:	0c 94 bf 56 	jmp	0xad7e	; 0xad7e <obj_print+0x106>
     440:	0c 94 01 38 	jmp	0x7002	; 0x7002 <interpret+0x1d4a>
     444:	0c 94 20 3f 	jmp	0x7e40	; 0x7e40 <interpret+0x2b88>
     448:	0c 94 a4 72 	jmp	0xe548	; 0xe548 <nat_26___bi___init__>
     44c:	0c 94 b0 7e 	jmp	0xfd60	; 0xfd60 <fifo_thread_queue_remove>
     450:	0c 94 82 55 	jmp	0xab04	; 0xab04 <obj_compare+0x13c>
     454:	0c 94 e1 2b 	jmp	0x57c2	; 0x57c2 <interpret+0x50a>
     458:	0c 94 31 36 	jmp	0x6c62	; 0x6c62 <interpret+0x19aa>
     45c:	0c 94 d5 54 	jmp	0xa9aa	; 0xa9aa <obj_isFalse+0x66>
     460:	0c 94 ed 6d 	jmp	0xdbda	; 0xdbda <nat_30_dict_clear>
     464:	0c 94 30 99 	jmp	0x13260	; 0x13260 <romfs_open>
     468:	0c 94 b4 2b 	jmp	0x5768	; 0x5768 <interpret+0x4b0>
     46c:	0c 94 03 23 	jmp	0x4606	; 0x4606 <heap_gcMarkObj+0x12a>
     470:	0c 94 7c 23 	jmp	0x46f8	; 0x46f8 <heap_gcMarkObj+0x21c>
     474:	0c 94 05 69 	jmp	0xd20a	; 0xd20a <nat_24___bi_type>
     478:	0c 94 b8 6f 	jmp	0xdf70	; 0xdf70 <nat_05_sys_heap>
     47c:	0c 94 37 6f 	jmp	0xde6e	; 0xde6e <nat_13_func_co_consts>
     480:	0c 94 b3 7e 	jmp	0xfd66	; 0xfd66 <fifo_rm_thread>
     484:	0c 94 b2 6c 	jmp	0xd964	; 0xd964 <nat_32_dict_values>
     488:	0c 94 a2 56 	jmp	0xad44	; 0xad44 <obj_print+0xcc>
     48c:	0c 94 4e 6f 	jmp	0xde9c	; 0xde9c <nat_03_sys_gc>
     490:	0c 94 20 6f 	jmp	0xde40	; 0xde40 <nat_12_func_co_names>
     494:	0c 94 71 23 	jmp	0x46e2	; 0x46e2 <heap_gcMarkObj+0x206>
     498:	0c 94 87 37 	jmp	0x6f0e	; 0x6f0e <interpret+0x1c56>
     49c:	0c 94 5e 2f 	jmp	0x5ebc	; 0x5ebc <interpret+0xc04>
     4a0:	0c 94 55 9a 	jmp	0x134aa	; 0x134aa <ramfs_putc>
     4a4:	0c 94 c3 7a 	jmp	0xf586	; 0xf586 <systick_irq_handle>
     4a8:	0c 94 e0 54 	jmp	0xa9c0	; 0xa9c0 <obj_isFalse+0x7c>
     4ac:	0c 94 e1 43 	jmp	0x87c2	; 0x87c2 <interpret+0x350a>
     4b0:	0c 94 9c 30 	jmp	0x6138	; 0x6138 <interpret+0xe80>
     4b4:	0c 94 0b 9a 	jmp	0x13416	; 0x13416 <ramfs_getc>
     4b8:	0c 94 bf 68 	jmp	0xd17e	; 0xd17e <nat_06_sys_putb>
     4bc:	0c 94 1f 54 	jmp	0xa83e	; 0xa83e <obj_loadFromImg+0x2e>
     4c0:	0c 94 f0 9b 	jmp	0x137e0	; 0x137e0 <atmega_get_pin>
     4c4:	0c 94 3a 9e 	jmp	0x13c74	; 0x13c74 <usart_putc>
     4c8:	0c 94 6a 9d 	jmp	0x13ad4	; 0x13ad4 <atmega_usart_read>
     4cc:	0c 94 5b 42 	jmp	0x84b6	; 0x84b6 <interpret+0x31fe>
     4d0:	0c 94 dc 29 	jmp	0x53b8	; 0x53b8 <interpret+0x100>
     4d4:	0c 94 71 56 	jmp	0xace2	; 0xace2 <obj_print+0x6a>
     4d8:	0c 94 e3 99 	jmp	0x133c6	; 0x133c6 <ramfs_read>
     4dc:	0c 94 fa 47 	jmp	0x8ff4	; 0x8ff4 <interpret+0x3d3c>
     4e0:	0c 94 74 72 	jmp	0xe4e8	; 0xe4e8 <nat_25___bi_Co>
     4e4:	0c 94 03 44 	jmp	0x8806	; 0x8806 <interpret+0x354e>
     4e8:	0c 94 eb 48 	jmp	0x91d6	; 0x91d6 <interpret+0x3f1e>
     4ec:	0c 94 94 9e 	jmp	0x13d28	; 0x13d28 <usart_read>
     4f0:	0c 94 84 04 	jmp	0x908	; 0x908 <avr_sysclk_enable>
     4f4:	0c 94 73 55 	jmp	0xaae6	; 0xaae6 <obj_compare+0x11e>
     4f8:	0c 94 43 54 	jmp	0xa886	; 0xa886 <obj_loadFromImg+0x76>
     4fc:	0c 94 71 3e 	jmp	0x7ce2	; 0x7ce2 <interpret+0x2a2a>
     500:	0c 94 a1 9b 	jmp	0x13742	; 0x13742 <atmega_dir_in>
     504:	0c 94 2d 32 	jmp	0x645a	; 0x645a <interpret+0x11a2>
     508:	0c 94 69 90 	jmp	0x120d2	; 0x120d2 <main_thread_func>
     50c:	0c 94 1f 6d 	jmp	0xda3e	; 0xda3e <nat_34_list_append>
     510:	0c 94 9f 38 	jmp	0x713e	; 0x713e <interpret+0x1e86>
     514:	0c 94 90 1d 	jmp	0x3b20	; 0x3b20 <float_compare+0x138>
     518:	0c 94 ef 2a 	jmp	0x55de	; 0x55de <interpret+0x326>
     51c:	0c 94 ca 23 	jmp	0x4794	; 0x4794 <heap_gcMarkObj+0x2b8>
     520:	0c 94 43 6d 	jmp	0xda86	; 0xda86 <nat_19___bi_len>
     524:	0c 94 de 68 	jmp	0xd1bc	; 0xd1bc <nat_18___bi_id>
     528:	0c 94 01 4d 	jmp	0x9a02	; 0x9a02 <interpret+0x474a>
     52c:	0c 94 8c 29 	jmp	0x5318	; 0x5318 <interpret+0x60>
     530:	0c 94 17 70 	jmp	0xe02e	; 0xe02e <nat_07_sys_runInThread>
     534:	0c 94 90 46 	jmp	0x8d20	; 0x8d20 <interpret+0x3a68>
     538:	0c 94 33 7f 	jmp	0xfe66	; 0xfe66 <edf_thread_queue_remove>
     53c:	0c 94 6c 2a 	jmp	0x54d8	; 0x54d8 <interpret+0x220>
     540:	0c 94 60 1d 	jmp	0x3ac0	; 0x3ac0 <float_compare+0xd8>
     544:	0c 94 b8 35 	jmp	0x6b70	; 0x6b70 <interpret+0x18b8>
     548:	0c 94 79 1d 	jmp	0x3af2	; 0x3af2 <float_compare+0x10a>

0000054c <__ctors_end>:
     54c:	11 24       	eor	r1, r1
     54e:	1f be       	out	0x3f, r1	; 63
     550:	c0 ea       	ldi	r28, 0xA0	; 160
     552:	d8 e0       	ldi	r29, 0x08	; 8
     554:	de bf       	out	0x3e, r29	; 62
     556:	cd bf       	out	0x3d, r28	; 61
     558:	1c be       	out	0x3c, r1	; 60
     55a:	1b be       	out	0x3b, r1	; 59

0000055c <__do_copy_data>:
     55c:	15 e0       	ldi	r17, 0x05	; 5
     55e:	a0 e0       	ldi	r26, 0x00	; 0
     560:	b2 e0       	ldi	r27, 0x02	; 2
     562:	e0 e0       	ldi	r30, 0x00	; 0
     564:	fe e5       	ldi	r31, 0x5E	; 94
     566:	01 e0       	ldi	r16, 0x01	; 1
     568:	0b bf       	out	0x3b, r16	; 59
     56a:	02 c0       	rjmp	.+4      	; 0x570 <__do_copy_data+0x14>
     56c:	07 90       	elpm	r0, Z+
     56e:	0d 92       	st	X+, r0
     570:	a0 3c       	cpi	r26, 0xC0	; 192
     572:	b1 07       	cpc	r27, r17
     574:	d9 f7       	brne	.-10     	; 0x56c <__do_copy_data+0x10>

00000576 <__do_clear_bss>:
     576:	27 e0       	ldi	r18, 0x07	; 7
     578:	a0 ec       	ldi	r26, 0xC0	; 192
     57a:	b5 e0       	ldi	r27, 0x05	; 5
     57c:	01 c0       	rjmp	.+2      	; 0x580 <.do_clear_bss_start>

0000057e <.do_clear_bss_loop>:
     57e:	1d 92       	st	X+, r1

00000580 <.do_clear_bss_start>:
     580:	af 39       	cpi	r26, 0x9F	; 159
     582:	b2 07       	cpc	r27, r18
     584:	e1 f7       	brne	.-8      	; 0x57e <.do_clear_bss_loop>
     586:	0e 94 71 9b 	call	0x136e2	; 0x136e2 <avr_init>
     58a:	0c 94 fd ae 	jmp	0x15dfa	; 0x15dfa <_exit>

0000058e <dev_init>:
     58e:	0f 92       	push	r0
     590:	0f b6       	in	r0, 0x3f	; 63
     592:	0f 92       	push	r0
     594:	1f 92       	push	r1
     596:	2f 92       	push	r2
     598:	3f 92       	push	r3
     59a:	4f 92       	push	r4
     59c:	5f 92       	push	r5
     59e:	6f 92       	push	r6
     5a0:	7f 92       	push	r7
     5a2:	8f 92       	push	r8
     5a4:	9f 92       	push	r9
     5a6:	af 92       	push	r10
     5a8:	bf 92       	push	r11
     5aa:	cf 92       	push	r12
     5ac:	df 92       	push	r13
     5ae:	ef 92       	push	r14
     5b0:	ff 92       	push	r15
     5b2:	0f 93       	push	r16
     5b4:	1f 93       	push	r17
     5b6:	2f 93       	push	r18
     5b8:	3f 93       	push	r19
     5ba:	4f 93       	push	r20
     5bc:	5f 93       	push	r21
     5be:	6f 93       	push	r22
     5c0:	7f 93       	push	r23
     5c2:	8f 93       	push	r24
     5c4:	9f 93       	push	r25
     5c6:	af 93       	push	r26
     5c8:	bf 93       	push	r27
     5ca:	cf 93       	push	r28
     5cc:	df 93       	push	r29
     5ce:	ef 93       	push	r30
     5d0:	ff 93       	push	r31
     5d2:	0e 94 7d 95 	call	0x12afa	; 0x12afa <vfs_init>
     5d6:	0e 94 2c 9f 	call	0x13e58	; 0x13e58 <dev_core_init>

000005da <__avr_timer_init>:
     5da:	0e 94 8a 04 	call	0x914	; 0x914 <avr_timer_init>

000005de <__avr_hrtimer_init>:
     5de:	0e 94 9d 05 	call	0xb3a	; 0xb3a <avr_hrtimer_init>

000005e2 <__sched_init>:
     5e2:	0e 94 65 89 	call	0x112ca	; 0x112ca <sched_init>

000005e6 <__gpiolib_init>:
     5e6:	0e 94 19 9d 	call	0x13a32	; 0x13a32 <gpiolib_init>

000005ea <__usart_core_init>:
     5ea:	0e 94 11 9f 	call	0x13e22	; 0x13e22 <usart_core_init>

000005ee <__romfs_rollout>:
     5ee:	0e 94 7b 99 	call	0x132f6	; 0x132f6 <romfs_rollout>

000005f2 <__ramfs_init>:
     5f2:	0e 94 67 9b 	call	0x136ce	; 0x136ce <ramfs_init>

000005f6 <__atmega_init_gpio>:
     5f6:	0e 94 8e 9c 	call	0x1391c	; 0x1391c <atmega_init_gpio>

000005fa <__atmega_usart_init>:
     5fa:	0e 94 de 9d 	call	0x13bbc	; 0x13bbc <atmega_usart_init>

000005fe <dev_init_exit>:
     5fe:	ff 91       	pop	r31
     600:	ef 91       	pop	r30
     602:	df 91       	pop	r29
     604:	cf 91       	pop	r28
     606:	bf 91       	pop	r27
     608:	af 91       	pop	r26
     60a:	9f 91       	pop	r25
     60c:	8f 91       	pop	r24
     60e:	7f 91       	pop	r23
     610:	6f 91       	pop	r22
     612:	5f 91       	pop	r21
     614:	4f 91       	pop	r20
     616:	3f 91       	pop	r19
     618:	2f 91       	pop	r18
     61a:	1f 91       	pop	r17
     61c:	0f 91       	pop	r16
     61e:	ff 90       	pop	r15
     620:	ef 90       	pop	r14
     622:	df 90       	pop	r13
     624:	cf 90       	pop	r12
     626:	bf 90       	pop	r11
     628:	af 90       	pop	r10
     62a:	9f 90       	pop	r9
     62c:	8f 90       	pop	r8
     62e:	7f 90       	pop	r7
     630:	6f 90       	pop	r6
     632:	5f 90       	pop	r5
     634:	4f 90       	pop	r4
     636:	3f 90       	pop	r3
     638:	2f 90       	pop	r2
     63a:	1f 90       	pop	r1
     63c:	0f 90       	pop	r0
     63e:	0f be       	out	0x3f, r0	; 63
     640:	0f 90       	pop	r0
     642:	08 95       	ret

00000644 <__bad_interrupt>:
     644:	0c 94 00 00 	jmp	0	; 0x0 <__vectors>

00000648 <delay_loop>:
     648:	61 15       	cp	r22, r1
     64a:	71 05       	cpc	r23, r1
     64c:	81 05       	cpc	r24, r1
     64e:	91 05       	cpc	r25, r1
     650:	31 f0       	breq	.+12     	; 0x65e <delay_loop+0x16>
     652:	11 2c       	mov	r1, r1
     654:	61 50       	subi	r22, 0x01	; 1
     656:	71 09       	sbc	r23, r1
     658:	81 09       	sbc	r24, r1
     65a:	91 09       	sbc	r25, r1
     65c:	f5 cf       	rjmp	.-22     	; 0x648 <delay_loop>
     65e:	08 95       	ret

00000660 <avr_switch_context>:
     660:	0f 92       	push	r0
     662:	0c b6       	in	r0, 0x3c	; 60
     664:	0f 92       	push	r0
     666:	0b b6       	in	r0, 0x3b	; 59
     668:	0f 92       	push	r0
     66a:	0f b6       	in	r0, 0x3f	; 63
     66c:	0f 92       	push	r0
     66e:	1f 92       	push	r1
     670:	2f 92       	push	r2
     672:	3f 92       	push	r3
     674:	4f 92       	push	r4
     676:	5f 92       	push	r5
     678:	6f 92       	push	r6
     67a:	7f 92       	push	r7
     67c:	8f 92       	push	r8
     67e:	9f 92       	push	r9
     680:	af 92       	push	r10
     682:	bf 92       	push	r11
     684:	cf 92       	push	r12
     686:	df 92       	push	r13
     688:	ef 92       	push	r14
     68a:	ff 92       	push	r15
     68c:	0f 93       	push	r16
     68e:	1f 93       	push	r17
     690:	2f 93       	push	r18
     692:	3f 93       	push	r19
     694:	4f 93       	push	r20
     696:	5f 93       	push	r21
     698:	6f 93       	push	r22
     69a:	7f 93       	push	r23
     69c:	8f 93       	push	r24
     69e:	9f 93       	push	r25
     6a0:	af 93       	push	r26
     6a2:	bf 93       	push	r27
     6a4:	cf 93       	push	r28
     6a6:	df 93       	push	r29
     6a8:	ef 93       	push	r30
     6aa:	ff 93       	push	r31
     6ac:	8f 93       	push	r24
     6ae:	9f 93       	push	r25
     6b0:	8d b7       	in	r24, 0x3d	; 61
     6b2:	9e b7       	in	r25, 0x3e	; 62
     6b4:	0e 94 69 05 	call	0xad2	; 0xad2 <avr_save_stack>
     6b8:	9f 91       	pop	r25
     6ba:	8f 91       	pop	r24
     6bc:	9e bf       	out	0x3e, r25	; 62
     6be:	8d bf       	out	0x3d, r24	; 61
     6c0:	ff 91       	pop	r31
     6c2:	ef 91       	pop	r30
     6c4:	df 91       	pop	r29
     6c6:	cf 91       	pop	r28
     6c8:	bf 91       	pop	r27
     6ca:	af 91       	pop	r26
     6cc:	9f 91       	pop	r25
     6ce:	8f 91       	pop	r24
     6d0:	7f 91       	pop	r23
     6d2:	6f 91       	pop	r22
     6d4:	5f 91       	pop	r21
     6d6:	4f 91       	pop	r20
     6d8:	3f 91       	pop	r19
     6da:	2f 91       	pop	r18
     6dc:	1f 91       	pop	r17
     6de:	0f 91       	pop	r16
     6e0:	ff 90       	pop	r15
     6e2:	ef 90       	pop	r14
     6e4:	df 90       	pop	r13
     6e6:	cf 90       	pop	r12
     6e8:	bf 90       	pop	r11
     6ea:	af 90       	pop	r10
     6ec:	9f 90       	pop	r9
     6ee:	8f 90       	pop	r8
     6f0:	7f 90       	pop	r7
     6f2:	6f 90       	pop	r6
     6f4:	5f 90       	pop	r5
     6f6:	4f 90       	pop	r4
     6f8:	3f 90       	pop	r3
     6fa:	2f 90       	pop	r2
     6fc:	1f 90       	pop	r1
     6fe:	0f 90       	pop	r0
     700:	0f be       	out	0x3f, r0	; 63
     702:	0f 90       	pop	r0
     704:	0b be       	out	0x3b, r0	; 59
     706:	0f 90       	pop	r0
     708:	0c be       	out	0x3c, r0	; 60
     70a:	0f 90       	pop	r0
     70c:	08 95       	ret

0000070e <avr_sre>:
     70e:	80 e8       	ldi	r24, 0x80	; 128
     710:	80 93 74 00 	sts	0x0074, r24
     714:	57 9a       	sbi	0x0a, 7	; 10
     716:	5f 98       	cbi	0x0b, 7	; 11
     718:	ea e0       	ldi	r30, 0x0A	; 10
     71a:	f1 e0       	ldi	r31, 0x01	; 1
     71c:	80 81       	ld	r24, Z
     71e:	80 6e       	ori	r24, 0xE0	; 224
     720:	80 83       	st	Z, r24
     722:	eb e0       	ldi	r30, 0x0B	; 11
     724:	f1 e0       	ldi	r31, 0x01	; 1
     726:	80 81       	ld	r24, Z
     728:	8f 71       	andi	r24, 0x1F	; 31
     72a:	80 83       	st	Z, r24
     72c:	08 95       	ret

0000072e <__vector_29>:
     72e:	1f 92       	push	r1
     730:	0f 92       	push	r0
     732:	0f b6       	in	r0, 0x3f	; 63
     734:	0f 92       	push	r0
     736:	11 24       	eor	r1, r1
     738:	0b b6       	in	r0, 0x3b	; 59
     73a:	0f 92       	push	r0
     73c:	2f 93       	push	r18
     73e:	3f 93       	push	r19
     740:	4f 93       	push	r20
     742:	5f 93       	push	r21
     744:	6f 93       	push	r22
     746:	7f 93       	push	r23
     748:	8f 93       	push	r24
     74a:	9f 93       	push	r25
     74c:	af 93       	push	r26
     74e:	bf 93       	push	r27
     750:	ef 93       	push	r30
     752:	ff 93       	push	r31
     754:	0e 94 0c 06 	call	0xc18	; 0xc18 <arch_get_irq_chip>
     758:	dc 01       	movw	r26, r24
     75a:	16 96       	adiw	r26, 0x06	; 6
     75c:	ed 91       	ld	r30, X+
     75e:	fc 91       	ld	r31, X
     760:	17 97       	sbiw	r26, 0x07	; 7
     762:	8d e1       	ldi	r24, 0x1D	; 29
     764:	90 e0       	ldi	r25, 0x00	; 0
     766:	19 95       	eicall
     768:	ff 91       	pop	r31
     76a:	ef 91       	pop	r30
     76c:	bf 91       	pop	r27
     76e:	af 91       	pop	r26
     770:	9f 91       	pop	r25
     772:	8f 91       	pop	r24
     774:	7f 91       	pop	r23
     776:	6f 91       	pop	r22
     778:	5f 91       	pop	r21
     77a:	4f 91       	pop	r20
     77c:	3f 91       	pop	r19
     77e:	2f 91       	pop	r18
     780:	0f 90       	pop	r0
     782:	0b be       	out	0x3b, r0	; 59
     784:	0f 90       	pop	r0
     786:	0f be       	out	0x3f, r0	; 63
     788:	0f 90       	pop	r0
     78a:	1f 90       	pop	r1
     78c:	18 95       	reti

0000078e <__vector_39>:
     78e:	1f 92       	push	r1
     790:	0f 92       	push	r0
     792:	0f b6       	in	r0, 0x3f	; 63
     794:	0f 92       	push	r0
     796:	11 24       	eor	r1, r1
     798:	0b b6       	in	r0, 0x3b	; 59
     79a:	0f 92       	push	r0
     79c:	2f 93       	push	r18
     79e:	3f 93       	push	r19
     7a0:	4f 93       	push	r20
     7a2:	5f 93       	push	r21
     7a4:	6f 93       	push	r22
     7a6:	7f 93       	push	r23
     7a8:	8f 93       	push	r24
     7aa:	9f 93       	push	r25
     7ac:	af 93       	push	r26
     7ae:	bf 93       	push	r27
     7b0:	ef 93       	push	r30
     7b2:	ff 93       	push	r31
     7b4:	0e 94 0c 06 	call	0xc18	; 0xc18 <arch_get_irq_chip>
     7b8:	dc 01       	movw	r26, r24
     7ba:	16 96       	adiw	r26, 0x06	; 6
     7bc:	ed 91       	ld	r30, X+
     7be:	fc 91       	ld	r31, X
     7c0:	17 97       	sbiw	r26, 0x07	; 7
     7c2:	87 e2       	ldi	r24, 0x27	; 39
     7c4:	90 e0       	ldi	r25, 0x00	; 0
     7c6:	19 95       	eicall
     7c8:	0e 94 e6 84 	call	0x109cc	; 0x109cc <preempt_schedule_irq>
     7cc:	ff 91       	pop	r31
     7ce:	ef 91       	pop	r30
     7d0:	bf 91       	pop	r27
     7d2:	af 91       	pop	r26
     7d4:	9f 91       	pop	r25
     7d6:	8f 91       	pop	r24
     7d8:	7f 91       	pop	r23
     7da:	6f 91       	pop	r22
     7dc:	5f 91       	pop	r21
     7de:	4f 91       	pop	r20
     7e0:	3f 91       	pop	r19
     7e2:	2f 91       	pop	r18
     7e4:	0f 90       	pop	r0
     7e6:	0b be       	out	0x3b, r0	; 59
     7e8:	0f 90       	pop	r0
     7ea:	0f be       	out	0x3f, r0	; 63
     7ec:	0f 90       	pop	r0
     7ee:	1f 90       	pop	r1
     7f0:	18 95       	reti

000007f2 <__vector_24>:
     7f2:	1f 92       	push	r1
     7f4:	0f 92       	push	r0
     7f6:	0f b6       	in	r0, 0x3f	; 63
     7f8:	0f 92       	push	r0
     7fa:	11 24       	eor	r1, r1
     7fc:	0b b6       	in	r0, 0x3b	; 59
     7fe:	0f 92       	push	r0
     800:	2f 93       	push	r18
     802:	3f 93       	push	r19
     804:	4f 93       	push	r20
     806:	5f 93       	push	r21
     808:	6f 93       	push	r22
     80a:	7f 93       	push	r23
     80c:	8f 93       	push	r24
     80e:	9f 93       	push	r25
     810:	af 93       	push	r26
     812:	bf 93       	push	r27
     814:	ef 93       	push	r30
     816:	ff 93       	push	r31
     818:	0e 94 0c 06 	call	0xc18	; 0xc18 <arch_get_irq_chip>
     81c:	dc 01       	movw	r26, r24
     81e:	16 96       	adiw	r26, 0x06	; 6
     820:	ed 91       	ld	r30, X+
     822:	fc 91       	ld	r31, X
     824:	17 97       	sbiw	r26, 0x07	; 7
     826:	88 e1       	ldi	r24, 0x18	; 24
     828:	90 e0       	ldi	r25, 0x00	; 0
     82a:	19 95       	eicall
     82c:	0e 94 e6 84 	call	0x109cc	; 0x109cc <preempt_schedule_irq>
     830:	ff 91       	pop	r31
     832:	ef 91       	pop	r30
     834:	bf 91       	pop	r27
     836:	af 91       	pop	r26
     838:	9f 91       	pop	r25
     83a:	8f 91       	pop	r24
     83c:	7f 91       	pop	r23
     83e:	6f 91       	pop	r22
     840:	5f 91       	pop	r21
     842:	4f 91       	pop	r20
     844:	3f 91       	pop	r19
     846:	2f 91       	pop	r18
     848:	0f 90       	pop	r0
     84a:	0b be       	out	0x3b, r0	; 59
     84c:	0f 90       	pop	r0
     84e:	0f be       	out	0x3f, r0	; 63
     850:	0f 90       	pop	r0
     852:	1f 90       	pop	r1
     854:	18 95       	reti

00000856 <__vector_25>:
     856:	1f 92       	push	r1
     858:	0f 92       	push	r0
     85a:	0f b6       	in	r0, 0x3f	; 63
     85c:	0f 92       	push	r0
     85e:	11 24       	eor	r1, r1
     860:	0b b6       	in	r0, 0x3b	; 59
     862:	0f 92       	push	r0
     864:	2f 93       	push	r18
     866:	3f 93       	push	r19
     868:	4f 93       	push	r20
     86a:	5f 93       	push	r21
     86c:	6f 93       	push	r22
     86e:	7f 93       	push	r23
     870:	8f 93       	push	r24
     872:	9f 93       	push	r25
     874:	af 93       	push	r26
     876:	bf 93       	push	r27
     878:	ef 93       	push	r30
     87a:	ff 93       	push	r31
     87c:	0e 94 0c 06 	call	0xc18	; 0xc18 <arch_get_irq_chip>
     880:	dc 01       	movw	r26, r24
     882:	16 96       	adiw	r26, 0x06	; 6
     884:	ed 91       	ld	r30, X+
     886:	fc 91       	ld	r31, X
     888:	17 97       	sbiw	r26, 0x07	; 7
     88a:	89 e1       	ldi	r24, 0x19	; 25
     88c:	90 e0       	ldi	r25, 0x00	; 0
     88e:	19 95       	eicall
     890:	ff 91       	pop	r31
     892:	ef 91       	pop	r30
     894:	bf 91       	pop	r27
     896:	af 91       	pop	r26
     898:	9f 91       	pop	r25
     89a:	8f 91       	pop	r24
     89c:	7f 91       	pop	r23
     89e:	6f 91       	pop	r22
     8a0:	5f 91       	pop	r21
     8a2:	4f 91       	pop	r20
     8a4:	3f 91       	pop	r19
     8a6:	2f 91       	pop	r18
     8a8:	0f 90       	pop	r0
     8aa:	0b be       	out	0x3b, r0	; 59
     8ac:	0f 90       	pop	r0
     8ae:	0f be       	out	0x3f, r0	; 63
     8b0:	0f 90       	pop	r0
     8b2:	1f 90       	pop	r1
     8b4:	18 95       	reti

000008b6 <arch_irq_disable>:
     8b6:	f8 94       	cli
     8b8:	08 95       	ret

000008ba <arch_irq_enable>:
     8ba:	78 94       	sei
     8bc:	08 95       	ret

000008be <arch_local_irq_enable>:
     8be:	78 94       	sei
     8c0:	08 95       	ret

000008c2 <arch_local_irq_disable>:
     8c2:	f8 94       	cli
     8c4:	08 95       	ret

000008c6 <arch_irq_get_flags>:
     8c6:	6f b7       	in	r22, 0x3f	; 63
     8c8:	60 78       	andi	r22, 0x80	; 128
     8ca:	70 e0       	ldi	r23, 0x00	; 0
     8cc:	80 e0       	ldi	r24, 0x00	; 0
     8ce:	90 e0       	ldi	r25, 0x00	; 0
     8d0:	08 95       	ret

000008d2 <arch_irq_restore_flags>:
     8d2:	20 e8       	ldi	r18, 0x80	; 128
     8d4:	fc 01       	movw	r30, r24
     8d6:	80 81       	ld	r24, Z
     8d8:	82 23       	and	r24, r18
     8da:	88 23       	and	r24, r24
     8dc:	09 f0       	breq	.+2      	; 0x8e0 <arch_irq_restore_flags+0xe>
     8de:	78 94       	sei
     8e0:	08 95       	ret

000008e2 <raw_irq_enabled_flags>:
     8e2:	4f b7       	in	r20, 0x3f	; 63
     8e4:	55 27       	eor	r21, r21
     8e6:	47 fd       	sbrc	r20, 7
     8e8:	50 95       	com	r21
     8ea:	65 2f       	mov	r22, r21
     8ec:	75 2f       	mov	r23, r21
     8ee:	44 27       	eor	r20, r20
     8f0:	77 fd       	sbrc	r23, 7
     8f2:	43 95       	inc	r20
     8f4:	55 27       	eor	r21, r21
     8f6:	66 27       	eor	r22, r22
     8f8:	77 27       	eor	r23, r23
     8fa:	fc 01       	movw	r30, r24
     8fc:	40 83       	st	Z, r20
     8fe:	51 83       	std	Z+1, r21	; 0x01
     900:	62 83       	std	Z+2, r22	; 0x02
     902:	73 83       	std	Z+3, r23	; 0x03
     904:	08 95       	ret

00000906 <cpu_request_irq>:
     906:	08 95       	ret

00000908 <avr_sysclk_enable>:
     908:	80 e0       	ldi	r24, 0x00	; 0
     90a:	90 e0       	ldi	r25, 0x00	; 0
     90c:	08 95       	ret

0000090e <avr_get_sys_clk>:
     90e:	80 e0       	ldi	r24, 0x00	; 0
     910:	92 e0       	ldi	r25, 0x02	; 2
     912:	08 95       	ret

00000914 <avr_timer_init>:
     914:	ef 92       	push	r14
     916:	ff 92       	push	r15
     918:	0f 93       	push	r16
     91a:	1f 93       	push	r17
     91c:	cf 93       	push	r28
     91e:	df 93       	push	r29
     920:	c0 e0       	ldi	r28, 0x00	; 0
     922:	d2 e0       	ldi	r29, 0x02	; 2
     924:	e1 2c       	mov	r14, r1
     926:	f1 2c       	mov	r15, r1
     928:	04 e8       	ldi	r16, 0x84	; 132
     92a:	14 e0       	ldi	r17, 0x04	; 4
     92c:	28 ee       	ldi	r18, 0xE8	; 232
     92e:	33 e0       	ldi	r19, 0x03	; 3
     930:	40 e0       	ldi	r20, 0x00	; 0
     932:	50 e0       	ldi	r21, 0x00	; 0
     934:	be 01       	movw	r22, r28
     936:	88 81       	ld	r24, Y
     938:	99 81       	ldd	r25, Y+1	; 0x01
     93a:	0e 94 bc 74 	call	0xe978	; 0xe978 <clocksource_init>
     93e:	be 01       	movw	r22, r28
     940:	87 e1       	ldi	r24, 0x17	; 23
     942:	90 e0       	ldi	r25, 0x00	; 0
     944:	0e 94 52 7b 	call	0xf6a4	; 0xf6a4 <systick_setup>
     948:	8a ef       	ldi	r24, 0xFA	; 250
     94a:	87 bd       	out	0x27, r24	; 39
     94c:	81 e0       	ldi	r24, 0x01	; 1
     94e:	80 93 6e 00 	sts	0x006E, r24
     952:	83 e0       	ldi	r24, 0x03	; 3
     954:	84 bd       	out	0x24, r24	; 36
     956:	9b e0       	ldi	r25, 0x0B	; 11
     958:	95 bd       	out	0x25, r25	; 37
     95a:	df 93       	push	r29
     95c:	cf 93       	push	r28
     95e:	1f 92       	push	r1
     960:	8f 93       	push	r24
     962:	0e 94 6e 90 	call	0x120dc	; 0x120dc <sysctl>
     966:	0f 90       	pop	r0
     968:	0f 90       	pop	r0
     96a:	0f 90       	pop	r0
     96c:	0f 90       	pop	r0
     96e:	df 91       	pop	r29
     970:	cf 91       	pop	r28
     972:	1f 91       	pop	r17
     974:	0f 91       	pop	r16
     976:	ff 90       	pop	r15
     978:	ef 90       	pop	r14
     97a:	08 95       	ret

0000097c <arch_delay_us>:
     97c:	21 e3       	ldi	r18, 0x31	; 49
     97e:	35 e9       	ldi	r19, 0x95	; 149
     980:	48 e9       	ldi	r20, 0x98	; 152
     982:	5f e3       	ldi	r21, 0x3F	; 63
     984:	0e 94 43 ad 	call	0x15a86	; 0x15a86 <__mulsf3>
     988:	25 ee       	ldi	r18, 0xE5	; 229
     98a:	31 e2       	ldi	r19, 0x21	; 33
     98c:	44 ef       	ldi	r20, 0xF4	; 244
     98e:	5d e3       	ldi	r21, 0x3D	; 61
     990:	0e 94 f2 aa 	call	0x155e4	; 0x155e4 <__addsf3>
     994:	0e 94 c7 ab 	call	0x1578e	; 0x1578e <__fixunssfsi>
     998:	0c 94 24 03 	jmp	0x648	; 0x648 <delay_loop>

0000099c <__vector_23>:
     99c:	1f 92       	push	r1
     99e:	0f 92       	push	r0
     9a0:	0f b6       	in	r0, 0x3f	; 63
     9a2:	0f 92       	push	r0
     9a4:	11 24       	eor	r1, r1
     9a6:	0b b6       	in	r0, 0x3b	; 59
     9a8:	0f 92       	push	r0
     9aa:	2f 93       	push	r18
     9ac:	3f 93       	push	r19
     9ae:	4f 93       	push	r20
     9b0:	5f 93       	push	r21
     9b2:	6f 93       	push	r22
     9b4:	7f 93       	push	r23
     9b6:	8f 93       	push	r24
     9b8:	9f 93       	push	r25
     9ba:	af 93       	push	r26
     9bc:	bf 93       	push	r27
     9be:	cf 93       	push	r28
     9c0:	df 93       	push	r29
     9c2:	ef 93       	push	r30
     9c4:	ff 93       	push	r31
     9c6:	0e 94 0c 06 	call	0xc18	; 0xc18 <arch_get_irq_chip>
     9ca:	ec 01       	movw	r28, r24
     9cc:	20 91 c0 05 	lds	r18, 0x05C0
     9d0:	30 91 c1 05 	lds	r19, 0x05C1
     9d4:	2f 5f       	subi	r18, 0xFF	; 255
     9d6:	3f 4f       	sbci	r19, 0xFF	; 255
     9d8:	30 93 c1 05 	sts	0x05C1, r19
     9dc:	20 93 c0 05 	sts	0x05C0, r18
     9e0:	28 38       	cpi	r18, 0x88	; 136
     9e2:	33 41       	sbci	r19, 0x13	; 19
     9e4:	49 f4       	brne	.+18     	; 0x9f8 <__vector_23+0x5c>
     9e6:	ee 81       	ldd	r30, Y+6	; 0x06
     9e8:	ff 81       	ldd	r31, Y+7	; 0x07
     9ea:	81 e0       	ldi	r24, 0x01	; 1
     9ec:	90 e0       	ldi	r25, 0x00	; 0
     9ee:	19 95       	eicall
     9f0:	10 92 c1 05 	sts	0x05C1, r1
     9f4:	10 92 c0 05 	sts	0x05C0, r1
     9f8:	ee 81       	ldd	r30, Y+6	; 0x06
     9fa:	ff 81       	ldd	r31, Y+7	; 0x07
     9fc:	87 e1       	ldi	r24, 0x17	; 23
     9fe:	90 e0       	ldi	r25, 0x00	; 0
     a00:	19 95       	eicall
     a02:	0e 94 e6 84 	call	0x109cc	; 0x109cc <preempt_schedule_irq>
     a06:	ff 91       	pop	r31
     a08:	ef 91       	pop	r30
     a0a:	df 91       	pop	r29
     a0c:	cf 91       	pop	r28
     a0e:	bf 91       	pop	r27
     a10:	af 91       	pop	r26
     a12:	9f 91       	pop	r25
     a14:	8f 91       	pop	r24
     a16:	7f 91       	pop	r23
     a18:	6f 91       	pop	r22
     a1a:	5f 91       	pop	r21
     a1c:	4f 91       	pop	r20
     a1e:	3f 91       	pop	r19
     a20:	2f 91       	pop	r18
     a22:	0f 90       	pop	r0
     a24:	0b be       	out	0x3b, r0	; 59
     a26:	0f 90       	pop	r0
     a28:	0f be       	out	0x3f, r0	; 63
     a2a:	0f 90       	pop	r0
     a2c:	1f 90       	pop	r1
     a2e:	18 95       	reti

00000a30 <cpu_to_rq>:
     a30:	0c 94 02 81 	jmp	0x10204	; 0x10204 <sched_get_grq>

00000a34 <sched_get_cpu_rq>:
     a34:	0c 94 02 81 	jmp	0x10204	; 0x10204 <sched_get_grq>

00000a38 <sched_select_rq>:
     a38:	0c 94 02 81 	jmp	0x10204	; 0x10204 <sched_get_grq>

00000a3c <sched_get_clock>:
     a3c:	0c 94 87 04 	jmp	0x90e	; 0x90e <avr_get_sys_clk>

00000a40 <sched_create_stack_frame>:
     a40:	ef 92       	push	r14
     a42:	ff 92       	push	r15
     a44:	0f 93       	push	r16
     a46:	1f 93       	push	r17
     a48:	cf 93       	push	r28
     a4a:	df 93       	push	r29
     a4c:	1f 92       	push	r1
     a4e:	1f 92       	push	r1
     a50:	cd b7       	in	r28, 0x3d	; 61
     a52:	de b7       	in	r29, 0x3e	; 62
     a54:	8c 01       	movw	r16, r24
     a56:	61 15       	cp	r22, r1
     a58:	71 05       	cpc	r23, r1
     a5a:	69 f1       	breq	.+90     	; 0xab6 <sched_create_stack_frame+0x76>
     a5c:	41 15       	cp	r20, r1
     a5e:	51 05       	cpc	r21, r1
     a60:	51 f1       	breq	.+84     	; 0xab6 <sched_create_stack_frame+0x76>
     a62:	fc 01       	movw	r30, r24
     a64:	70 8f       	std	Z+24, r23	; 0x18
     a66:	67 8b       	std	Z+23, r22	; 0x17
     a68:	54 8f       	std	Z+28, r21	; 0x1c
     a6a:	43 8f       	std	Z+27, r20	; 0x1b
     a6c:	7b 01       	movw	r14, r22
     a6e:	e4 0e       	add	r14, r20
     a70:	f5 1e       	adc	r15, r21
     a72:	c7 01       	movw	r24, r14
     a74:	87 97       	sbiw	r24, 0x27	; 39
     a76:	7c 01       	movw	r14, r24
     a78:	92 8f       	std	Z+26, r25	; 0x1a
     a7a:	81 8f       	std	Z+25, r24	; 0x19
     a7c:	46 e2       	ldi	r20, 0x26	; 38
     a7e:	50 e0       	ldi	r21, 0x00	; 0
     a80:	60 e0       	ldi	r22, 0x00	; 0
     a82:	70 e0       	ldi	r23, 0x00	; 0
     a84:	29 83       	std	Y+1, r18	; 0x01
     a86:	3a 83       	std	Y+2, r19	; 0x02
     a88:	0e 94 4c a7 	call	0x14e98	; 0x14e98 <memset>
     a8c:	29 81       	ldd	r18, Y+1	; 0x01
     a8e:	f7 01       	movw	r30, r14
     a90:	25 a3       	std	Z+37, r18	; 0x25
     a92:	3a 81       	ldd	r19, Y+2	; 0x02
     a94:	34 a3       	std	Z+36, r19	; 0x24
     a96:	8f b7       	in	r24, 0x3f	; 63
     a98:	87 8f       	std	Z+31, r24	; 0x1f
     a9a:	f8 01       	movw	r30, r16
     a9c:	81 a1       	ldd	r24, Z+33	; 0x21
     a9e:	f7 01       	movw	r30, r14
     aa0:	87 83       	std	Z+7, r24	; 0x07
     aa2:	f8 01       	movw	r30, r16
     aa4:	82 a1       	ldd	r24, Z+34	; 0x22
     aa6:	f7 01       	movw	r30, r14
     aa8:	86 83       	std	Z+6, r24	; 0x06
     aaa:	f8 01       	movw	r30, r16
     aac:	81 8d       	ldd	r24, Z+25	; 0x19
     aae:	92 8d       	ldd	r25, Z+26	; 0x1a
     ab0:	01 97       	sbiw	r24, 0x01	; 1
     ab2:	92 8f       	std	Z+26, r25	; 0x1a
     ab4:	81 8f       	std	Z+25, r24	; 0x19
     ab6:	0f 90       	pop	r0
     ab8:	0f 90       	pop	r0
     aba:	df 91       	pop	r29
     abc:	cf 91       	pop	r28
     abe:	1f 91       	pop	r17
     ac0:	0f 91       	pop	r16
     ac2:	ff 90       	pop	r15
     ac4:	ef 90       	pop	r14
     ac6:	08 95       	ret

00000ac8 <sched_free_stack_frame>:
     ac8:	fc 01       	movw	r30, r24
     aca:	87 89       	ldd	r24, Z+23	; 0x17
     acc:	90 8d       	ldd	r25, Z+24	; 0x18
     ace:	0c 94 33 a3 	jmp	0x14666	; 0x14666 <kfree>

00000ad2 <avr_save_stack>:
     ad2:	61 15       	cp	r22, r1
     ad4:	71 05       	cpc	r23, r1
     ad6:	21 f0       	breq	.+8      	; 0xae0 <avr_save_stack+0xe>
     ad8:	02 96       	adiw	r24, 0x02	; 2
     ada:	fb 01       	movw	r30, r22
     adc:	92 8f       	std	Z+26, r25	; 0x1a
     ade:	81 8f       	std	Z+25, r24	; 0x19
     ae0:	08 95       	ret

00000ae2 <cpu_switch_context>:
     ae2:	0f b6       	in	r0, 0x3f	; 63
     ae4:	f8 94       	cli
     ae6:	0f 92       	push	r0
     ae8:	fa 01       	movw	r30, r20
     aea:	81 8d       	ldd	r24, Z+25	; 0x19
     aec:	92 8d       	ldd	r25, Z+26	; 0x1a
     aee:	0e 94 30 03 	call	0x660	; 0x660 <avr_switch_context>
     af2:	0f 90       	pop	r0
     af4:	0f be       	out	0x3f, r0	; 63
     af6:	08 95       	ret

00000af8 <arch_set_power_mode>:
     af8:	84 30       	cpi	r24, 0x04	; 4
     afa:	91 05       	cpc	r25, r1
     afc:	59 f0       	breq	.+22     	; 0xb14 <arch_set_power_mode+0x1c>
     afe:	3c f4       	brge	.+14     	; 0xb0e <arch_set_power_mode+0x16>
     b00:	9c 01       	movw	r18, r24
     b02:	21 50       	subi	r18, 0x01	; 1
     b04:	31 09       	sbc	r19, r1
     b06:	22 30       	cpi	r18, 0x02	; 2
     b08:	31 05       	cpc	r19, r1
     b0a:	20 f0       	brcs	.+8      	; 0xb14 <arch_set_power_mode+0x1c>
     b0c:	08 95       	ret
     b0e:	88 30       	cpi	r24, 0x08	; 8
     b10:	91 05       	cpc	r25, r1
     b12:	71 f4       	brne	.+28     	; 0xb30 <arch_set_power_mode+0x38>
     b14:	02 97       	sbiw	r24, 0x02	; 2
     b16:	87 30       	cpi	r24, 0x07	; 7
     b18:	91 05       	cpc	r25, r1
     b1a:	28 f4       	brcc	.+10     	; 0xb26 <arch_set_power_mode+0x2e>
     b1c:	fc 01       	movw	r30, r24
     b1e:	e8 5a       	subi	r30, 0xA8	; 168
     b20:	fd 4f       	sbci	r31, 0xFD	; 253
     b22:	90 81       	ld	r25, Z
     b24:	01 c0       	rjmp	.+2      	; 0xb28 <arch_set_power_mode+0x30>
     b26:	90 e0       	ldi	r25, 0x00	; 0
     b28:	83 b3       	in	r24, 0x13	; 19
     b2a:	81 70       	andi	r24, 0x01	; 1
     b2c:	89 2b       	or	r24, r25
     b2e:	83 bb       	out	0x13, r24	; 19
     b30:	08 95       	ret

00000b32 <arch_hibernate>:
     b32:	98 9a       	sbi	0x13, 0	; 19
     b34:	88 95       	sleep
     b36:	98 98       	cbi	0x13, 0	; 19
     b38:	08 95       	ret

00000b3a <avr_hrtimer_init>:
     b3a:	ef 92       	push	r14
     b3c:	ff 92       	push	r15
     b3e:	0f 93       	push	r16
     b40:	1f 93       	push	r17
     b42:	cf 93       	push	r28
     b44:	df 93       	push	r29
     b46:	c1 e2       	ldi	r28, 0x21	; 33
     b48:	d2 e0       	ldi	r29, 0x02	; 2
     b4a:	88 81       	ld	r24, Y
     b4c:	99 81       	ldd	r25, Y+1	; 0x01
     b4e:	10 92 43 02 	sts	0x0243, r1
     b52:	10 92 42 02 	sts	0x0242, r1
     b56:	e1 2c       	mov	r14, r1
     b58:	f1 2c       	mov	r15, r1
     b5a:	00 e0       	ldi	r16, 0x00	; 0
     b5c:	10 e0       	ldi	r17, 0x00	; 0
     b5e:	20 ed       	ldi	r18, 0xD0	; 208
     b60:	37 e0       	ldi	r19, 0x07	; 7
     b62:	40 e0       	ldi	r20, 0x00	; 0
     b64:	50 e0       	ldi	r21, 0x00	; 0
     b66:	be 01       	movw	r22, r28
     b68:	0e 94 bc 74 	call	0xe978	; 0xe978 <clocksource_init>
     b6c:	df 93       	push	r29
     b6e:	cf 93       	push	r28
     b70:	1f 92       	push	r1
     b72:	84 e0       	ldi	r24, 0x04	; 4
     b74:	8f 93       	push	r24
     b76:	0e 94 6e 90 	call	0x120dc	; 0x120dc <sysctl>
     b7a:	be 01       	movw	r22, r28
     b7c:	8f e0       	ldi	r24, 0x0F	; 15
     b7e:	90 e0       	ldi	r25, 0x00	; 0
     b80:	0e 94 5c 7d 	call	0xfab8	; 0xfab8 <hrtimer_init>
     b84:	8a ef       	ldi	r24, 0xFA	; 250
     b86:	80 93 b3 00 	sts	0x00B3, r24
     b8a:	81 e0       	ldi	r24, 0x01	; 1
     b8c:	80 93 70 00 	sts	0x0070, r24
     b90:	83 e0       	ldi	r24, 0x03	; 3
     b92:	80 93 b0 00 	sts	0x00B0, r24
     b96:	8b e0       	ldi	r24, 0x0B	; 11
     b98:	80 93 b1 00 	sts	0x00B1, r24
     b9c:	0f 90       	pop	r0
     b9e:	0f 90       	pop	r0
     ba0:	0f 90       	pop	r0
     ba2:	0f 90       	pop	r0
     ba4:	df 91       	pop	r29
     ba6:	cf 91       	pop	r28
     ba8:	1f 91       	pop	r17
     baa:	0f 91       	pop	r16
     bac:	ff 90       	pop	r15
     bae:	ef 90       	pop	r14
     bb0:	08 95       	ret

00000bb2 <__vector_15>:
     bb2:	1f 92       	push	r1
     bb4:	0f 92       	push	r0
     bb6:	0f b6       	in	r0, 0x3f	; 63
     bb8:	0f 92       	push	r0
     bba:	11 24       	eor	r1, r1
     bbc:	0b b6       	in	r0, 0x3b	; 59
     bbe:	0f 92       	push	r0
     bc0:	2f 93       	push	r18
     bc2:	3f 93       	push	r19
     bc4:	4f 93       	push	r20
     bc6:	5f 93       	push	r21
     bc8:	6f 93       	push	r22
     bca:	7f 93       	push	r23
     bcc:	8f 93       	push	r24
     bce:	9f 93       	push	r25
     bd0:	af 93       	push	r26
     bd2:	bf 93       	push	r27
     bd4:	ef 93       	push	r30
     bd6:	ff 93       	push	r31
     bd8:	0e 94 0c 06 	call	0xc18	; 0xc18 <arch_get_irq_chip>
     bdc:	dc 01       	movw	r26, r24
     bde:	16 96       	adiw	r26, 0x06	; 6
     be0:	ed 91       	ld	r30, X+
     be2:	fc 91       	ld	r31, X
     be4:	17 97       	sbiw	r26, 0x07	; 7
     be6:	8f e0       	ldi	r24, 0x0F	; 15
     be8:	90 e0       	ldi	r25, 0x00	; 0
     bea:	19 95       	eicall
     bec:	ff 91       	pop	r31
     bee:	ef 91       	pop	r30
     bf0:	bf 91       	pop	r27
     bf2:	af 91       	pop	r26
     bf4:	9f 91       	pop	r25
     bf6:	8f 91       	pop	r24
     bf8:	7f 91       	pop	r23
     bfa:	6f 91       	pop	r22
     bfc:	5f 91       	pop	r21
     bfe:	4f 91       	pop	r20
     c00:	3f 91       	pop	r19
     c02:	2f 91       	pop	r18
     c04:	0f 90       	pop	r0
     c06:	0b be       	out	0x3b, r0	; 59
     c08:	0f 90       	pop	r0
     c0a:	0f be       	out	0x3f, r0	; 63
     c0c:	0f 90       	pop	r0
     c0e:	1f 90       	pop	r1
     c10:	18 95       	reti

00000c12 <cpu_get_id>:
     c12:	80 e0       	ldi	r24, 0x00	; 0
     c14:	90 e0       	ldi	r25, 0x00	; 0
     c16:	08 95       	ret

00000c18 <arch_get_irq_chip>:
     c18:	84 e4       	ldi	r24, 0x44	; 68
     c1a:	92 e0       	ldi	r25, 0x02	; 2
     c1c:	08 95       	ret
     c1e:	4b 1d       	adc	r20, r11
     c20:	52 1d       	adc	r21, r2
     c22:	59 1d       	adc	r21, r9
     c24:	60 1d       	adc	r22, r0
     c26:	67 1d       	adc	r22, r7
     c28:	6e 1d       	adc	r22, r14
     c2a:	90 1d       	adc	r25, r0
     c2c:	90 1d       	adc	r25, r0
     c2e:	75 1d       	adc	r23, r5
     c30:	79 1d       	adc	r23, r9
     c32:	0e 24       	eor	r0, r14
     c34:	0e 24       	eor	r0, r14
     c36:	0e 24       	eor	r0, r14
     c38:	0e 24       	eor	r0, r14
     c3a:	98 22       	and	r9, r24
     c3c:	b9 22       	and	r11, r25
     c3e:	dc 22       	and	r13, r28
     c40:	1c 23       	and	r17, r28
     c42:	dc 22       	and	r13, r28
     c44:	1c 23       	and	r17, r28
     c46:	18 24       	eor	r1, r8
     c48:	18 24       	eor	r1, r8
     c4a:	0e 24       	eor	r0, r14
     c4c:	bf 23       	and	r27, r31
     c4e:	18 24       	eor	r1, r8
     c50:	0e 24       	eor	r0, r14
     c52:	0e 24       	eor	r0, r14
     c54:	03 23       	and	r16, r19
     c56:	03 24       	eor	r0, r3
     c58:	b1 22       	and	r11, r17
     c5a:	03 24       	eor	r0, r3
     c5c:	18 24       	eor	r1, r8
     c5e:	18 24       	eor	r1, r8
     c60:	18 24       	eor	r1, r8
     c62:	0e 24       	eor	r0, r14
     c64:	2b 23       	and	r18, r27
     c66:	71 23       	and	r23, r17
     c68:	18 24       	eor	r1, r8
     c6a:	7c 23       	and	r23, r28
     c6c:	bf 23       	and	r27, r31
     c6e:	ca 23       	and	r28, r26
     c70:	c8 29       	or	r28, r8
     c72:	dc 29       	or	r29, r12
     c74:	16 2a       	or	r1, r22
     c76:	6c 2a       	or	r6, r28
     c78:	7d 2a       	or	r7, r29
     c7a:	82 4e       	sbci	r24, 0xE2	; 226
     c7c:	82 4e       	sbci	r24, 0xE2	; 226
     c7e:	82 4e       	sbci	r24, 0xE2	; 226
     c80:	8c 29       	or	r24, r12
     c82:	ef 2a       	or	r14, r31
     c84:	25 2b       	or	r18, r21
     c86:	55 2b       	or	r21, r21
     c88:	8e 2b       	or	r24, r30
     c8a:	82 4e       	sbci	r24, 0xE2	; 226
     c8c:	b4 2b       	or	r27, r20
     c8e:	82 4e       	sbci	r24, 0xE2	; 226
     c90:	82 4e       	sbci	r24, 0xE2	; 226
     c92:	e1 2b       	or	r30, r17
     c94:	01 2c       	mov	r0, r1
     c96:	93 2c       	mov	r9, r3
     c98:	66 2e       	mov	r6, r22
     c9a:	b6 2e       	mov	r11, r22
     c9c:	8b 2f       	mov	r24, r27
     c9e:	9c 30       	cpi	r25, 0x0C	; 12
     ca0:	61 31       	cpi	r22, 0x11	; 17
     ca2:	66 2e       	mov	r6, r22
     ca4:	2d 32       	cpi	r18, 0x2D	; 45
     ca6:	66 2e       	mov	r6, r22
     ca8:	2d 32       	cpi	r18, 0x2D	; 45
     caa:	4f 32       	cpi	r20, 0x2F	; 47
     cac:	be 32       	cpi	r27, 0x2E	; 46
     cae:	be 32       	cpi	r27, 0x2E	; 46
     cb0:	be 32       	cpi	r27, 0x2E	; 46
     cb2:	82 4e       	sbci	r24, 0xE2	; 226
     cb4:	82 4e       	sbci	r24, 0xE2	; 226
     cb6:	82 4e       	sbci	r24, 0xE2	; 226
     cb8:	82 4e       	sbci	r24, 0xE2	; 226
     cba:	82 4e       	sbci	r24, 0xE2	; 226
     cbc:	82 4e       	sbci	r24, 0xE2	; 226
     cbe:	82 4e       	sbci	r24, 0xE2	; 226
     cc0:	82 4e       	sbci	r24, 0xE2	; 226
     cc2:	82 4e       	sbci	r24, 0xE2	; 226
     cc4:	82 4e       	sbci	r24, 0xE2	; 226
     cc6:	82 4e       	sbci	r24, 0xE2	; 226
     cc8:	82 4e       	sbci	r24, 0xE2	; 226
     cca:	82 4e       	sbci	r24, 0xE2	; 226
     ccc:	82 4e       	sbci	r24, 0xE2	; 226
     cce:	82 4e       	sbci	r24, 0xE2	; 226
     cd0:	82 4e       	sbci	r24, 0xE2	; 226
     cd2:	82 4e       	sbci	r24, 0xE2	; 226
     cd4:	82 4e       	sbci	r24, 0xE2	; 226
     cd6:	82 4e       	sbci	r24, 0xE2	; 226
     cd8:	82 4e       	sbci	r24, 0xE2	; 226
     cda:	5e 2f       	mov	r21, r30
     cdc:	8b 2f       	mov	r24, r27
     cde:	9c 30       	cpi	r25, 0x0C	; 12
     ce0:	93 2c       	mov	r9, r3
     ce2:	66 2e       	mov	r6, r22
     ce4:	b6 2e       	mov	r11, r22
     ce6:	59 33       	cpi	r21, 0x39	; 57
     ce8:	f6 34       	cpi	r31, 0x46	; 70
     cea:	b8 35       	cpi	r27, 0x58	; 88
     cec:	31 36       	cpi	r19, 0x61	; 97
     cee:	9f 36       	cpi	r25, 0x6F	; 111
     cf0:	0d 37       	cpi	r16, 0x7D	; 125
     cf2:	87 37       	cpi	r24, 0x77	; 119
     cf4:	01 2c       	mov	r0, r1
     cf6:	6f 2c       	mov	r6, r15
     cf8:	82 4e       	sbci	r24, 0xE2	; 226
     cfa:	01 38       	cpi	r16, 0x81	; 129
     cfc:	01 38       	cpi	r16, 0x81	; 129
     cfe:	3e 38       	cpi	r19, 0x8E	; 142
     d00:	82 4e       	sbci	r24, 0xE2	; 226
     d02:	82 4e       	sbci	r24, 0xE2	; 226
     d04:	b8 35       	cpi	r27, 0x58	; 88
     d06:	31 36       	cpi	r19, 0x61	; 97
     d08:	9f 36       	cpi	r25, 0x6F	; 111
     d0a:	0d 37       	cpi	r16, 0x7D	; 125
     d0c:	87 37       	cpi	r24, 0x77	; 119
     d0e:	4e 38       	cpi	r20, 0x8E	; 142
     d10:	82 4e       	sbci	r24, 0xE2	; 226
     d12:	dd 38       	cpi	r29, 0x8D	; 141
     d14:	fb 38       	cpi	r31, 0x8B	; 139
     d16:	6b 39       	cpi	r22, 0x9B	; 155
     d18:	82 4e       	sbci	r24, 0xE2	; 226
     d1a:	82 4e       	sbci	r24, 0xE2	; 226
     d1c:	89 39       	cpi	r24, 0x99	; 153
     d1e:	82 4e       	sbci	r24, 0xE2	; 226
     d20:	d0 39       	cpi	r29, 0x90	; 144
     d22:	13 3a       	cpi	r17, 0xA3	; 163
     d24:	9f 38       	cpi	r25, 0x8F	; 143
     d26:	5b 3a       	cpi	r21, 0xAB	; 171
     d28:	01 3b       	cpi	r16, 0xB1	; 177
     d2a:	82 4e       	sbci	r24, 0xE2	; 226
     d2c:	4d 3b       	cpi	r20, 0xBD	; 189
     d2e:	a3 3c       	cpi	r26, 0xC3	; 195
     d30:	da 3d       	cpi	r29, 0xDA	; 218
     d32:	37 3e       	cpi	r19, 0xE7	; 231
     d34:	71 3e       	cpi	r23, 0xE1	; 225
     d36:	e8 3e       	cpi	r30, 0xE8	; 232
     d38:	20 3f       	cpi	r18, 0xF0	; 240
     d3a:	81 3f       	cpi	r24, 0xF1	; 241
     d3c:	cc 3f       	cpi	r28, 0xFC	; 252
     d3e:	26 40       	sbci	r18, 0x06	; 6
     d40:	5a 40       	sbci	r21, 0x0A	; 10
     d42:	5b 42       	sbci	r21, 0x2B	; 43
     d44:	14 45       	sbci	r17, 0x54	; 84
     d46:	e4 45       	sbci	r30, 0x54	; 84
     d48:	82 4e       	sbci	r24, 0xE2	; 226
     d4a:	44 46       	sbci	r20, 0x64	; 100
     d4c:	65 46       	sbci	r22, 0x65	; 101
     d4e:	90 46       	sbci	r25, 0x60	; 96
     d50:	ca 46       	sbci	r28, 0x6A	; 106
     d52:	82 4e       	sbci	r24, 0xE2	; 226
     d54:	82 4e       	sbci	r24, 0xE2	; 226
     d56:	02 47       	sbci	r16, 0x72	; 114
     d58:	82 4e       	sbci	r24, 0xE2	; 226
     d5a:	82 4e       	sbci	r24, 0xE2	; 226
     d5c:	ca 46       	sbci	r28, 0x6A	; 106
     d5e:	59 47       	sbci	r21, 0x79	; 121
     d60:	82 4e       	sbci	r24, 0xE2	; 226
     d62:	82 4e       	sbci	r24, 0xE2	; 226
     d64:	82 4e       	sbci	r24, 0xE2	; 226
     d66:	c3 47       	sbci	r28, 0x73	; 115
     d68:	fa 47       	sbci	r31, 0x7A	; 122
     d6a:	18 48       	sbci	r17, 0x88	; 136
     d6c:	82 4e       	sbci	r24, 0xE2	; 226
     d6e:	82 4e       	sbci	r24, 0xE2	; 226
     d70:	82 4e       	sbci	r24, 0xE2	; 226
     d72:	40 48       	sbci	r20, 0x80	; 128
     d74:	eb 48       	sbci	r30, 0x8B	; 139
     d76:	6c 4c       	sbci	r22, 0xCC	; 204
     d78:	82 4e       	sbci	r24, 0xE2	; 226
     d7a:	01 4d       	sbci	r16, 0xD1	; 209
     d7c:	b7 4d       	sbci	r27, 0xD7	; 215
     d7e:	b7 4d       	sbci	r27, 0xD7	; 215
     d80:	0a 4e       	sbci	r16, 0xEA	; 234
     d82:	ae 43       	sbci	r26, 0x3E	; 62
     d84:	b6 43       	sbci	r27, 0x36	; 54
     d86:	be 43       	sbci	r27, 0x3E	; 62
     d88:	c6 43       	sbci	r28, 0x36	; 54
     d8a:	ce 43       	sbci	r28, 0x3E	; 62
     d8c:	d6 43       	sbci	r29, 0x36	; 54
     d8e:	79 4e       	sbci	r23, 0xE9	; 233
     d90:	79 4e       	sbci	r23, 0xE9	; 233
     d92:	e1 43       	sbci	r30, 0x31	; 49
     d94:	03 44       	sbci	r16, 0x43	; 67
     d96:	1f 54       	subi	r17, 0x4F	; 79
     d98:	29 54       	subi	r18, 0x49	; 73
     d9a:	36 54       	subi	r19, 0x46	; 70
     d9c:	43 54       	subi	r20, 0x43	; 67
     d9e:	4c 54       	subi	r20, 0x4C	; 76
     da0:	6d 54       	subi	r22, 0x4D	; 77
     da2:	6d 54       	subi	r22, 0x4D	; 77
     da4:	6d 54       	subi	r22, 0x4D	; 77
     da6:	6d 54       	subi	r22, 0x4D	; 77
     da8:	6d 54       	subi	r22, 0x4D	; 77
     daa:	62 54       	subi	r22, 0x42	; 66
     dac:	57 54       	subi	r21, 0x47	; 71
     dae:	b4 54       	subi	r27, 0x44	; 68
     db0:	d5 54       	subi	r29, 0x45	; 69
     db2:	b6 54       	subi	r27, 0x46	; 70
     db4:	c5 54       	subi	r28, 0x45	; 69
     db6:	cd 54       	subi	r28, 0x4D	; 77
     db8:	e0 54       	subi	r30, 0x40	; 64
     dba:	e0 54       	subi	r30, 0x40	; 64
     dbc:	e0 54       	subi	r30, 0x40	; 64
     dbe:	e0 54       	subi	r30, 0x40	; 64
     dc0:	e0 54       	subi	r30, 0x40	; 64
     dc2:	e0 54       	subi	r30, 0x40	; 64
     dc4:	e0 54       	subi	r30, 0x40	; 64
     dc6:	e0 54       	subi	r30, 0x40	; 64
     dc8:	e0 54       	subi	r30, 0x40	; 64
     dca:	e0 54       	subi	r30, 0x40	; 64
     dcc:	d5 54       	subi	r29, 0x45	; 69
     dce:	e0 54       	subi	r30, 0x40	; 64
     dd0:	e0 54       	subi	r30, 0x40	; 64
     dd2:	cd 54       	subi	r28, 0x4D	; 77
     dd4:	cd 54       	subi	r28, 0x4D	; 77
     dd6:	82 55       	subi	r24, 0x52	; 82
     dd8:	4c 55       	subi	r20, 0x5C	; 92
     dda:	5d 55       	subi	r21, 0x5D	; 93
     ddc:	73 55       	subi	r23, 0x53	; 83
     dde:	78 55       	subi	r23, 0x58	; 88
     de0:	84 55       	subi	r24, 0x54	; 84
     de2:	84 55       	subi	r24, 0x54	; 84
     de4:	84 55       	subi	r24, 0x54	; 84
     de6:	84 55       	subi	r24, 0x54	; 84
     de8:	84 55       	subi	r24, 0x54	; 84
     dea:	84 55       	subi	r24, 0x54	; 84
     dec:	84 55       	subi	r24, 0x54	; 84
     dee:	84 55       	subi	r24, 0x54	; 84
     df0:	84 55       	subi	r24, 0x54	; 84
     df2:	84 55       	subi	r24, 0x54	; 84
     df4:	84 55       	subi	r24, 0x54	; 84
     df6:	84 55       	subi	r24, 0x54	; 84
     df8:	84 55       	subi	r24, 0x54	; 84
     dfa:	78 55       	subi	r23, 0x58	; 88
     dfc:	7d 55       	subi	r23, 0x5D	; 93
     dfe:	78 55       	subi	r23, 0x58	; 88
     e00:	69 56       	subi	r22, 0x69	; 105
     e02:	71 56       	subi	r23, 0x61	; 97
     e04:	75 56       	subi	r23, 0x65	; 101
     e06:	79 56       	subi	r23, 0x69	; 105
     e08:	85 56       	subi	r24, 0x65	; 101
     e0a:	bf 56       	subi	r27, 0x6F	; 111
     e0c:	bf 56       	subi	r27, 0x6F	; 111
     e0e:	bf 56       	subi	r27, 0x6F	; 111
     e10:	bf 56       	subi	r27, 0x6F	; 111
     e12:	a2 56       	subi	r26, 0x62	; 98
     e14:	bf 56       	subi	r27, 0x6F	; 111
     e16:	bf 56       	subi	r27, 0x6F	; 111
     e18:	bf 56       	subi	r27, 0x6F	; 111
     e1a:	bf 56       	subi	r27, 0x6F	; 111
     e1c:	e7 56       	subi	r30, 0x67	; 103
     e1e:	91 56       	subi	r25, 0x61	; 97
     e20:	bf 56       	subi	r27, 0x6F	; 111
     e22:	bf 56       	subi	r27, 0x6F	; 111
     e24:	89 56       	subi	r24, 0x69	; 105
     e26:	8d 56       	subi	r24, 0x6D	; 109
     e28:	e7 56       	subi	r30, 0x67	; 103
     e2a:	e7 56       	subi	r30, 0x67	; 103
     e2c:	e7 56       	subi	r30, 0x67	; 103
     e2e:	e7 56       	subi	r30, 0x67	; 103
     e30:	e7 56       	subi	r30, 0x67	; 103
     e32:	e7 56       	subi	r30, 0x67	; 103
     e34:	e7 56       	subi	r30, 0x67	; 103
     e36:	e7 56       	subi	r30, 0x67	; 103
     e38:	e7 56       	subi	r30, 0x67	; 103
     e3a:	bf 56       	subi	r27, 0x6F	; 111

00000e3c <__c.2685>:
     e3c:	25 64       	ori	r18, 0x45	; 69
     e3e:	0a 00       	.word	0x000a	; ????

00000e40 <__c.2683>:
     e40:	46 69       	ori	r20, 0x96	; 150
     e42:	6c 65       	ori	r22, 0x5C	; 92
     e44:	49 64       	ori	r20, 0x49	; 73
     e46:	20 30       	cpi	r18, 0x00	; 0
     e48:	78 25       	eor	r23, r8
     e4a:	30 32       	cpi	r19, 0x20	; 32
     e4c:	58 20       	and	r5, r8
     e4e:	6c 69       	ori	r22, 0x9C	; 156
     e50:	6e 65       	ori	r22, 0x5E	; 94
     e52:	20 00       	.word	0x0020	; ????

00000e54 <__c.2681>:
     e54:	25 73       	andi	r18, 0x35	; 53
     e56:	3a 00       	.word	0x003a	; ????

00000e58 <__c.2676>:
     e58:	20 64       	ori	r18, 0x40	; 64
     e5a:	65 74       	andi	r22, 0x45	; 69
     e5c:	65 63       	ori	r22, 0x35	; 53
     e5e:	74 65       	ori	r23, 0x54	; 84
     e60:	64 20       	and	r6, r4
     e62:	62 79       	andi	r22, 0x92	; 146
     e64:	20 00       	.word	0x0020	; ????

00000e66 <__c.2674>:
     e66:	45 72       	andi	r20, 0x25	; 37
     e68:	72 6f       	ori	r23, 0xF2	; 242
     e6a:	72 20       	and	r7, r2
     e6c:	63 6f       	ori	r22, 0xF3	; 243
     e6e:	64 65       	ori	r22, 0x54	; 84
     e70:	20 30       	cpi	r18, 0x00	; 0
     e72:	78 25       	eor	r23, r8
     e74:	30 32       	cpi	r19, 0x20	; 32
     e76:	58 00       	.word	0x0058	; ????

00000e78 <__c.2672>:
     e78:	25 73       	andi	r18, 0x35	; 53
	...

00000e7b <__c.2665>:
     e7b:	20 20       	and	r2, r0
     e7d:	46 69       	ori	r20, 0x96	; 150
     e7f:	6c 65       	ori	r22, 0x5C	; 92
     e81:	20 22       	and	r2, r16
     e83:	25 73       	andi	r18, 0x35	; 53
     e85:	22 2c       	mov	r2, r2
     e87:	20 6c       	ori	r18, 0xC0	; 192
     e89:	69 6e       	ori	r22, 0xE9	; 233
     e8b:	65 20       	and	r6, r5
     e8d:	25 64       	ori	r18, 0x45	; 69
     e8f:	2c 20       	and	r2, r12
     e91:	69 6e       	ori	r22, 0xE9	; 233
     e93:	20 25       	eor	r18, r0
     e95:	73 0a       	sbc	r7, r19
	...

00000e98 <__c.2659>:
     e98:	20 20       	and	r2, r0
     e9a:	25 73       	andi	r18, 0x35	; 53
     e9c:	28 29       	or	r18, r8
     e9e:	20 5f       	subi	r18, 0xF0	; 240
     ea0:	5f 4e       	sbci	r21, 0xEF	; 239
     ea2:	41 54       	subi	r20, 0x41	; 65
     ea4:	49 56       	subi	r20, 0x69	; 105
     ea6:	45 5f       	subi	r20, 0xF5	; 245
     ea8:	5f 0a       	sbc	r5, r31
	...

00000eab <__c.2657>:
     eab:	20 20       	and	r2, r0
     ead:	55 6e       	ori	r21, 0xE5	; 229
     eaf:	61 62       	ori	r22, 0x21	; 33
     eb1:	6c 65       	ori	r22, 0x5C	; 92
     eb3:	20 74       	andi	r18, 0x40	; 64
     eb5:	6f 20       	and	r6, r15
     eb7:	67 65       	ori	r22, 0x57	; 87
     eb9:	74 20       	and	r7, r4
     ebb:	6e 61       	ori	r22, 0x1E	; 30
     ebd:	74 69       	ori	r23, 0x94	; 148
     ebf:	76 65       	ori	r23, 0x56	; 86
     ec1:	20 66       	ori	r18, 0x60	; 96
     ec3:	75 6e       	ori	r23, 0xE5	; 229
     ec5:	63 20       	and	r6, r3
     ec7:	6e 61       	ori	r22, 0x1E	; 30
     ec9:	6d 65       	ori	r22, 0x5D	; 93
     ecb:	2e 00       	.word	0x002e	; ????

00000ecd <__c.2655>:
     ecd:	54 72       	andi	r21, 0x24	; 36
     ecf:	61 63       	ori	r22, 0x31	; 49
     ed1:	65 62       	ori	r22, 0x25	; 37
     ed3:	61 63       	ori	r22, 0x31	; 49
     ed5:	6b 20       	and	r6, r11
     ed7:	28 6d       	ori	r18, 0xD8	; 216
     ed9:	6f 73       	andi	r22, 0x3F	; 63
     edb:	74 20       	and	r7, r4
     edd:	72 65       	ori	r23, 0x52	; 82
     edf:	63 65       	ori	r22, 0x53	; 83
     ee1:	6e 74       	andi	r22, 0x4E	; 78
     ee3:	20 63       	ori	r18, 0x30	; 48
     ee5:	61 6c       	ori	r22, 0xC1	; 193
     ee7:	6c 20       	and	r6, r12
     ee9:	66 69       	ori	r22, 0x96	; 150
     eeb:	72 73       	andi	r23, 0x32	; 50
     eed:	74 29       	or	r23, r4
     eef:	3a 00       	.word	0x003a	; ????

00000ef1 <exnlookup>:
     ef1:	d1 0f       	add	r29, r17
     ef3:	c6 0f       	add	r28, r22
     ef5:	be 0f       	add	r27, r30
     ef7:	ac 0f       	add	r26, r28
     ef9:	9d 0f       	add	r25, r29
     efb:	8e 0f       	add	r24, r30
     efd:	82 0f       	add	r24, r18
     eff:	77 0f       	add	r23, r23
     f01:	6e 0f       	add	r22, r30
     f03:	62 0f       	add	r22, r18
     f05:	58 0f       	add	r21, r24
     f07:	4c 0f       	add	r20, r28
     f09:	40 0f       	add	r20, r16
     f0b:	36 0f       	add	r19, r22
     f0d:	2b 0f       	add	r18, r27
     f0f:	1d 0f       	add	r17, r29
     f11:	15 0f       	add	r17, r21
	...

00000f15 <exnstr_16>:
     f15:	57 61       	ori	r21, 0x17	; 23
     f17:	72 6e       	ori	r23, 0xE2	; 226
     f19:	69 6e       	ori	r22, 0xE9	; 233
     f1b:	67 00       	.word	0x0067	; ????

00000f1d <exnstr_15>:
     f1d:	53 74       	andi	r21, 0x43	; 67
     f1f:	6f 70       	andi	r22, 0x0F	; 15
     f21:	49 74       	andi	r20, 0x49	; 73
     f23:	65 72       	andi	r22, 0x25	; 37
     f25:	61 74       	andi	r22, 0x41	; 65
     f27:	69 6f       	ori	r22, 0xF9	; 249
     f29:	6e 00       	.word	0x006e	; ????

00000f2b <exnstr_14>:
     f2b:	56 61       	ori	r21, 0x16	; 22
     f2d:	6c 75       	andi	r22, 0x5C	; 92
     f2f:	65 45       	sbci	r22, 0x55	; 85
     f31:	72 72       	andi	r23, 0x22	; 34
     f33:	6f 72       	andi	r22, 0x2F	; 47
	...

00000f36 <exnstr_13>:
     f36:	54 79       	andi	r21, 0x94	; 148
     f38:	70 65       	ori	r23, 0x50	; 80
     f3a:	45 72       	andi	r20, 0x25	; 37
     f3c:	72 6f       	ori	r23, 0xF2	; 242
     f3e:	72 00       	.word	0x0072	; ????

00000f40 <exnstr_12>:
     f40:	53 79       	andi	r21, 0x93	; 147
     f42:	73 74       	andi	r23, 0x43	; 67
     f44:	65 6d       	ori	r22, 0xD5	; 213
     f46:	45 72       	andi	r20, 0x25	; 37
     f48:	72 6f       	ori	r23, 0xF2	; 242
     f4a:	72 00       	.word	0x0072	; ????

00000f4c <exnstr_11>:
     f4c:	53 79       	andi	r21, 0x93	; 147
     f4e:	6e 74       	andi	r22, 0x4E	; 78
     f50:	61 78       	andi	r22, 0x81	; 129
     f52:	45 72       	andi	r20, 0x25	; 37
     f54:	72 6f       	ori	r23, 0xF2	; 242
     f56:	72 00       	.word	0x0072	; ????

00000f58 <exnstr_10>:
     f58:	4e 61       	ori	r20, 0x1E	; 30
     f5a:	6d 65       	ori	r22, 0x5D	; 93
     f5c:	45 72       	andi	r20, 0x25	; 37
     f5e:	72 6f       	ori	r23, 0xF2	; 242
     f60:	72 00       	.word	0x0072	; ????

00000f62 <exnstr_09>:
     f62:	4d 65       	ori	r20, 0x5D	; 93
     f64:	6d 6f       	ori	r22, 0xFD	; 253
     f66:	72 79       	andi	r23, 0x92	; 146
     f68:	45 72       	andi	r20, 0x25	; 37
     f6a:	72 6f       	ori	r23, 0xF2	; 242
     f6c:	72 00       	.word	0x0072	; ????

00000f6e <exnstr_08>:
     f6e:	4b 65       	ori	r20, 0x5B	; 91
     f70:	79 45       	sbci	r23, 0x59	; 89
     f72:	72 72       	andi	r23, 0x22	; 34
     f74:	6f 72       	andi	r22, 0x2F	; 47
	...

00000f77 <exnstr_07>:
     f77:	49 6e       	ori	r20, 0xE9	; 233
     f79:	64 65       	ori	r22, 0x54	; 84
     f7b:	78 45       	sbci	r23, 0x58	; 88
     f7d:	72 72       	andi	r23, 0x22	; 34
     f7f:	6f 72       	andi	r22, 0x2F	; 47
	...

00000f82 <exnstr_06>:
     f82:	49 6d       	ori	r20, 0xD9	; 217
     f84:	70 6f       	ori	r23, 0xF0	; 240
     f86:	72 74       	andi	r23, 0x42	; 66
     f88:	45 72       	andi	r20, 0x25	; 37
     f8a:	72 6f       	ori	r23, 0xF2	; 242
     f8c:	72 00       	.word	0x0072	; ????

00000f8e <exnstr_05>:
     f8e:	41 74       	andi	r20, 0x41	; 65
     f90:	74 72       	andi	r23, 0x24	; 36
     f92:	69 62       	ori	r22, 0x29	; 41
     f94:	75 74       	andi	r23, 0x45	; 69
     f96:	65 45       	sbci	r22, 0x55	; 85
     f98:	72 72       	andi	r23, 0x22	; 34
     f9a:	6f 72       	andi	r22, 0x2F	; 47
	...

00000f9d <exnstr_04>:
     f9d:	41 73       	andi	r20, 0x31	; 49
     f9f:	73 65       	ori	r23, 0x53	; 83
     fa1:	72 74       	andi	r23, 0x42	; 66
     fa3:	69 6f       	ori	r22, 0xF9	; 249
     fa5:	6e 45       	sbci	r22, 0x5E	; 94
     fa7:	72 72       	andi	r23, 0x22	; 34
     fa9:	6f 72       	andi	r22, 0x2F	; 47
	...

00000fac <exnstr_03>:
     fac:	5a 65       	ori	r21, 0x5A	; 90
     fae:	72 6f       	ori	r23, 0xF2	; 242
     fb0:	44 69       	ori	r20, 0x94	; 148
     fb2:	76 69       	ori	r23, 0x96	; 150
     fb4:	73 69       	ori	r23, 0x93	; 147
     fb6:	6f 6e       	ori	r22, 0xEF	; 239
     fb8:	45 72       	andi	r20, 0x25	; 37
     fba:	72 6f       	ori	r23, 0xF2	; 242
     fbc:	72 00       	.word	0x0072	; ????

00000fbe <exnstr_02>:
     fbe:	49 6f       	ori	r20, 0xF9	; 249
     fc0:	45 72       	andi	r20, 0x25	; 37
     fc2:	72 6f       	ori	r23, 0xF2	; 242
     fc4:	72 00       	.word	0x0072	; ????

00000fc6 <exnstr_01>:
     fc6:	53 79       	andi	r21, 0x93	; 147
     fc8:	73 74       	andi	r23, 0x43	; 67
     fca:	65 6d       	ori	r22, 0xD5	; 213
     fcc:	45 78       	andi	r20, 0x85	; 133
     fce:	69 74       	andi	r22, 0x49	; 73
	...

00000fd1 <exnstr_00>:
     fd1:	45 78       	andi	r20, 0x85	; 133
     fd3:	63 65       	ori	r22, 0x53	; 83
     fd5:	70 74       	andi	r23, 0x40	; 64
     fd7:	69 6f       	ori	r22, 0xF9	; 249
     fd9:	6e 00       	.word	0x006e	; ????

00000fdb <fnlookup>:
     fdb:	e1 10       	cpse	r14, r1
     fdd:	d7 10       	cpse	r13, r7
     fdf:	d0 10       	cpse	r13, r0
     fe1:	c8 10       	cpse	r12, r8
     fe3:	c1 10       	cpse	r12, r1
     fe5:	b8 10       	cpse	r11, r8
     fe7:	b1 10       	cpse	r11, r1
     fe9:	ab 10       	cpse	r10, r11
     feb:	a5 10       	cpse	r10, r5
     fed:	9c 10       	cpse	r9, r12
     fef:	8d 10       	cpse	r8, r13
     ff1:	86 10       	cpse	r8, r6
     ff3:	7f 10       	cpse	r7, r15
     ff5:	79 10       	cpse	r7, r9
     ff7:	70 10       	cpse	r7, r0
     ff9:	6a 10       	cpse	r6, r10
     ffb:	60 10       	cpse	r6, r0
     ffd:	5a 10       	cpse	r5, r10
     fff:	51 10       	cpse	r5, r1
    1001:	49 10       	cpse	r4, r9
    1003:	43 10       	cpse	r4, r3
    1005:	3e 10       	cpse	r3, r14
    1007:	35 10       	cpse	r3, r5
    1009:	2d 10       	cpse	r2, r13
    100b:	25 10       	cpse	r2, r5
    100d:	19 10       	cpse	r1, r9
    100f:	11 10       	cpse	r1, r1

00001011 <fnstr_26>:
    1011:	73 63       	ori	r23, 0x33	; 51
    1013:	68 65       	ori	r22, 0x58	; 88
    1015:	64 2e       	mov	r6, r20
    1017:	63 00       	.word	0x0063	; ????

00001019 <fnstr_25>:
    1019:	62 79       	andi	r22, 0x92	; 146
    101b:	74 65       	ori	r23, 0x54	; 84
    101d:	61 72       	andi	r22, 0x21	; 33
    101f:	72 61       	ori	r23, 0x12	; 18
    1021:	79 2e       	mov	r7, r25
    1023:	63 00       	.word	0x0063	; ????

00001025 <fnstr_24>:
    1025:	63 6c       	ori	r22, 0xC3	; 195
    1027:	61 73       	andi	r22, 0x31	; 49
    1029:	73 2e       	mov	r7, r19
    102b:	63 00       	.word	0x0063	; ????

0000102d <fnstr_23>:
    102d:	66 6c       	ori	r22, 0xC6	; 198
    102f:	6f 61       	ori	r22, 0x1F	; 31
    1031:	74 2e       	mov	r7, r20
    1033:	63 00       	.word	0x0063	; ????

00001035 <fnstr_22>:
    1035:	74 68       	ori	r23, 0x84	; 132
    1037:	72 65       	ori	r23, 0x52	; 82
    1039:	61 64       	ori	r22, 0x41	; 65
    103b:	2e 63       	ori	r18, 0x3E	; 62
	...

0000103e <fnstr_21>:
    103e:	70 6d       	ori	r23, 0xD0	; 208
    1040:	2e 63       	ori	r18, 0x3E	; 62
	...

00001043 <fnstr_20>:
    1043:	73 65       	ori	r23, 0x53	; 83
    1045:	71 2e       	mov	r7, r17
    1047:	63 00       	.word	0x0063	; ????

00001049 <fnstr_19>:
    1049:	74 75       	andi	r23, 0x54	; 84
    104b:	70 6c       	ori	r23, 0xC0	; 192
    104d:	65 2e       	mov	r6, r21
    104f:	63 00       	.word	0x0063	; ????

00001051 <fnstr_18>:
    1051:	73 74       	andi	r23, 0x43	; 67
    1053:	72 6f       	ori	r23, 0xF2	; 242
    1055:	62 6a       	ori	r22, 0xA2	; 162
    1057:	2e 63       	ori	r18, 0x3E	; 62
	...

0000105a <fnstr_17>:
    105a:	73 6c       	ori	r23, 0xC3	; 195
    105c:	69 2e       	mov	r6, r25
    105e:	63 00       	.word	0x0063	; ????

00001060 <fnstr_16>:
    1060:	73 65       	ori	r23, 0x53	; 83
    1062:	67 6c       	ori	r22, 0xC7	; 199
    1064:	69 73       	andi	r22, 0x39	; 57
    1066:	74 2e       	mov	r7, r20
    1068:	63 00       	.word	0x0063	; ????

0000106a <fnstr_15>:
    106a:	6f 62       	ori	r22, 0x2F	; 47
    106c:	6a 2e       	mov	r6, r26
    106e:	63 00       	.word	0x0063	; ????

00001070 <fnstr_14>:
    1070:	6d 6f       	ori	r22, 0xFD	; 253
    1072:	64 75       	andi	r22, 0x54	; 84
    1074:	6c 65       	ori	r22, 0x5C	; 92
    1076:	2e 63       	ori	r18, 0x3E	; 62
	...

00001079 <fnstr_13>:
    1079:	6d 65       	ori	r22, 0x5D	; 93
    107b:	6d 2e       	mov	r6, r29
    107d:	63 00       	.word	0x0063	; ????

0000107f <fnstr_12>:
    107f:	6d 61       	ori	r22, 0x1D	; 29
    1081:	69 6e       	ori	r22, 0xE9	; 233
    1083:	2e 63       	ori	r18, 0x3E	; 62
	...

00001086 <fnstr_11>:
    1086:	6c 69       	ori	r22, 0x9C	; 156
    1088:	73 74       	andi	r23, 0x43	; 67
    108a:	2e 63       	ori	r18, 0x3E	; 62
	...

0000108d <fnstr_10>:
    108d:	70 6d       	ori	r23, 0xD0	; 208
    108f:	73 74       	andi	r23, 0x43	; 67
    1091:	64 6c       	ori	r22, 0xC4	; 196
    1093:	69 62       	ori	r22, 0x29	; 41
    1095:	5f 6e       	ori	r21, 0xEF	; 239
    1097:	61 74       	andi	r22, 0x41	; 65
    1099:	2e 63       	ori	r18, 0x3E	; 62
	...

0000109c <fnstr_09>:
    109c:	69 6e       	ori	r22, 0xE9	; 233
    109e:	74 65       	ori	r23, 0x54	; 84
    10a0:	72 70       	andi	r23, 0x02	; 2
    10a2:	2e 63       	ori	r18, 0x3E	; 62
	...

000010a5 <fnstr_08>:
    10a5:	69 6e       	ori	r22, 0xE9	; 233
    10a7:	74 2e       	mov	r7, r20
    10a9:	63 00       	.word	0x0063	; ????

000010ab <fnstr_07>:
    10ab:	69 6d       	ori	r22, 0xD9	; 217
    10ad:	67 2e       	mov	r6, r23
    10af:	63 00       	.word	0x0063	; ????

000010b1 <fnstr_06>:
    10b1:	68 65       	ori	r22, 0x58	; 88
    10b3:	61 70       	andi	r22, 0x01	; 1
    10b5:	2e 63       	ori	r18, 0x3E	; 62
	...

000010b8 <fnstr_05>:
    10b8:	67 6c       	ori	r22, 0xC7	; 199
    10ba:	6f 62       	ori	r22, 0x2F	; 47
    10bc:	61 6c       	ori	r22, 0xC1	; 193
    10be:	2e 63       	ori	r18, 0x3E	; 62
	...

000010c1 <fnstr_04>:
    10c1:	66 75       	andi	r22, 0x56	; 86
    10c3:	6e 63       	ori	r22, 0x3E	; 62
    10c5:	2e 63       	ori	r18, 0x3E	; 62
	...

000010c8 <fnstr_03>:
    10c8:	66 72       	andi	r22, 0x26	; 38
    10ca:	61 6d       	ori	r22, 0xD1	; 209
    10cc:	65 2e       	mov	r6, r21
    10ce:	63 00       	.word	0x0063	; ????

000010d0 <fnstr_02>:
    10d0:	64 69       	ori	r22, 0x94	; 148
    10d2:	63 74       	andi	r22, 0x43	; 67
    10d4:	2e 63       	ori	r18, 0x3E	; 62
	...

000010d7 <fnstr_01>:
    10d7:	63 6f       	ori	r22, 0xF3	; 243
    10d9:	64 65       	ori	r22, 0x54	; 84
    10db:	6f 62       	ori	r22, 0x2F	; 47
    10dd:	6a 2e       	mov	r6, r26
    10df:	63 00       	.word	0x0063	; ????

000010e1 <fnstr_00>:
    10e1:	3c 6e       	ori	r19, 0xEC	; 236
    10e3:	6f 20       	and	r6, r15
    10e5:	66 69       	ori	r22, 0x96	; 150
    10e7:	6c 65       	ori	r22, 0x5C	; 92
    10e9:	3e 00       	.word	0x003e	; ????

000010eb <stdlib_img>:
    10eb:	0a a7       	std	Y+42, r16	; 0x2a
    10ed:	00 00       	nop
    10ef:	40 01       	movw	r8, r0
    10f1:	00 00       	nop
    10f3:	05 00       	.word	0x0005	; ????
    10f5:	04 02       	muls	r16, r20
    10f7:	03 07       	cpc	r16, r19
    10f9:	00 76       	andi	r16, 0x60	; 96
    10fb:	65 72       	andi	r22, 0x25	; 37
    10fd:	73 69       	ori	r23, 0x93	; 147
    10ff:	6f 6e       	ori	r22, 0xEF	; 239
    1101:	03 03       	mulsu	r16, r19
    1103:	00 61       	ori	r16, 0x10	; 16
    1105:	76 72       	andi	r23, 0x26	; 38
    1107:	03 00       	.word	0x0003	; ????
    1109:	00 03       	mulsu	r16, r16
    110b:	22 00       	.word	0x0022	; ????
    110d:	61 72       	andi	r22, 0x21	; 33
    110f:	63 68       	ori	r22, 0x83	; 131
    1111:	2f 61       	ori	r18, 0x1F	; 31
    1113:	76 72       	andi	r23, 0x26	; 38
    1115:	2f 6b       	ori	r18, 0xBF	; 191
    1117:	65 72       	andi	r22, 0x25	; 37
    1119:	6e 65       	ori	r22, 0x5E	; 94
    111b:	6c 2f       	mov	r22, r28
    111d:	70 79       	andi	r23, 0x90	; 144
    111f:	74 68       	ori	r23, 0x84	; 132
    1121:	6f 6e       	ori	r22, 0xEF	; 239
    1123:	2f 6c       	ori	r18, 0xCF	; 207
    1125:	69 62       	ori	r22, 0x29	; 41
    1127:	2f 61       	ori	r18, 0x1F	; 31
    1129:	76 72       	andi	r23, 0x26	; 38
    112b:	2e 70       	andi	r18, 0x0E	; 14
    112d:	79 00       	.word	0x0079	; ????
    112f:	04 02       	muls	r16, r20
    1131:	0a 51       	subi	r16, 0x1A	; 26
    1133:	00 00       	nop
    1135:	43 01       	movw	r8, r6
    1137:	00 00       	nop
    1139:	05 00       	.word	0x0005	; ????
    113b:	04 01       	movw	r0, r8
    113d:	03 07       	cpc	r16, r19
    113f:	00 76       	andi	r16, 0x60	; 96
    1141:	65 72       	andi	r22, 0x25	; 37
    1143:	73 69       	ori	r23, 0x93	; 147
    1145:	6f 6e       	ori	r22, 0xEF	; 239
    1147:	03 02       	muls	r16, r19
    1149:	00 00       	nop
    114b:	01 03       	mulsu	r16, r17
    114d:	22 00       	.word	0x0022	; ????
    114f:	61 72       	andi	r22, 0x21	; 33
    1151:	63 68       	ori	r22, 0x83	; 131
    1153:	2f 61       	ori	r18, 0x1F	; 31
    1155:	76 72       	andi	r23, 0x26	; 38
    1157:	2f 6b       	ori	r18, 0xBF	; 191
    1159:	65 72       	andi	r22, 0x25	; 37
    115b:	6e 65       	ori	r22, 0x5E	; 94
    115d:	6c 2f       	mov	r22, r28
    115f:	70 79       	andi	r23, 0x90	; 144
    1161:	74 68       	ori	r23, 0x84	; 132
    1163:	6f 6e       	ori	r22, 0xEF	; 239
    1165:	2f 6c       	ori	r18, 0xCF	; 207
    1167:	69 62       	ori	r22, 0x29	; 41
    1169:	2f 61       	ori	r18, 0x1F	; 31
    116b:	76 72       	andi	r23, 0x26	; 38
    116d:	2e 70       	andi	r18, 0x0E	; 14
    116f:	79 00       	.word	0x0079	; ????
    1171:	04 02       	muls	r16, r20
    1173:	00 03       	mulsu	r16, r16
    1175:	05 00       	.word	0x0005	; ????
    1177:	30 2e       	mov	r3, r16
    1179:	31 2e       	mov	r3, r17
    117b:	30 04       	cpc	r3, r0
    117d:	00 64       	ori	r16, 0x40	; 64
    117f:	01 00       	.word	0x0001	; ????
    1181:	53 00       	.word	0x0053	; ????
    1183:	04 00       	.word	0x0004	; ????
    1185:	64 00       	.word	0x0064	; ????
    1187:	00 84       	ldd	r0, Z+8	; 0x08
    1189:	00 00       	nop
    118b:	5a 00       	.word	0x005a	; ????
    118d:	00 64       	ori	r16, 0x40	; 64
    118f:	01 00       	.word	0x0001	; ????
    1191:	53 0a       	sbc	r5, r19
    1193:	34 01       	movw	r6, r8
    1195:	00 40       	sbci	r16, 0x00	; 0
    1197:	02 00       	.word	0x0002	; ????
    1199:	00 11       	cpse	r16, r0
    119b:	00 04       	cpc	r0, r0
    119d:	04 03       	mulsu	r16, r20
    119f:	07 00       	.word	0x0007	; ????
    11a1:	5f 67       	ori	r21, 0x7F	; 127
    11a3:	65 74       	andi	r22, 0x45	; 69
    11a5:	49 6d       	ori	r20, 0xD9	; 217
    11a7:	67 03       	mulsu	r22, r23
    11a9:	03 00       	.word	0x0003	; ????
    11ab:	78 30       	cpi	r23, 0x08	; 8
    11ad:	34 03       	mulsu	r19, r20
    11af:	03 00       	.word	0x0003	; ????
    11b1:	69 70       	andi	r22, 0x09	; 9
    11b3:	6d 03       	fmul	r22, r21
    11b5:	03 00       	.word	0x0003	; ????
    11b7:	69 70       	andi	r22, 0x09	; 9
    11b9:	6d 03       	fmul	r22, r21
    11bb:	04 00       	.word	0x0004	; ????
    11bd:	09 39       	cpi	r16, 0x99	; 153
    11bf:	09 0b       	sbc	r16, r25
    11c1:	03 19       	sub	r16, r3
    11c3:	00 6b       	ori	r16, 0xB0	; 176
    11c5:	65 72       	andi	r22, 0x25	; 37
    11c7:	6e 65       	ori	r22, 0x5E	; 94
    11c9:	6c 2f       	mov	r22, r28
    11cb:	70 79       	andi	r23, 0x90	; 144
    11cd:	74 68       	ori	r23, 0x84	; 132
    11cf:	6f 6e       	ori	r22, 0xEF	; 239
    11d1:	2f 6c       	ori	r18, 0xCF	; 207
    11d3:	69 62       	ori	r22, 0x29	; 41
    11d5:	2f 69       	ori	r18, 0x9F	; 159
    11d7:	70 6d       	ori	r23, 0xD0	; 208
    11d9:	2e 70       	andi	r18, 0x0E	; 14
    11db:	79 00       	.word	0x0079	; ????
    11dd:	04 04       	cpc	r0, r4
    11df:	0b 00       	.word	0x000b	; ????
    11e1:	00 00       	nop
    11e3:	0b 00       	.word	0x000b	; ????
    11e5:	01 00       	.word	0x0001	; ????
    11e7:	0a ba       	out	0x1a, r0	; 26
    11e9:	00 01       	movw	r0, r0
    11eb:	43 03       	mulsu	r20, r19
    11ed:	04 00       	.word	0x0004	; ????
    11ef:	55 00       	.word	0x0055	; ????
    11f1:	04 07       	cpc	r16, r20
    11f3:	03 07       	cpc	r16, r19
    11f5:	00 5f       	subi	r16, 0xF0	; 240
    11f7:	67 65       	ori	r22, 0x57	; 87
    11f9:	74 49       	sbci	r23, 0x94	; 148
    11fb:	6d 67       	ori	r22, 0x7D	; 125
    11fd:	03 02       	muls	r16, r19
    11ff:	00 43       	sbci	r16, 0x30	; 48
    1201:	6f 03       	fmul	r22, r23
    1203:	04 00       	.word	0x0004	; ????
    1205:	65 76       	andi	r22, 0x65	; 101
    1207:	61 6c       	ori	r22, 0xC1	; 193
    1209:	03 03       	mulsu	r16, r19
    120b:	00 78       	andi	r16, 0x80	; 128
    120d:	30 34       	cpi	r19, 0x40	; 64
    120f:	03 05       	cpc	r16, r3
    1211:	00 46       	sbci	r16, 0x60	; 96
    1213:	61 6c       	ori	r22, 0xC1	; 193
    1215:	73 65       	ori	r23, 0x53	; 83
    1217:	03 0e       	add	r0, r19
    1219:	00 41       	sbci	r16, 0x10	; 16
    121b:	73 73       	andi	r23, 0x33	; 51
    121d:	65 72       	andi	r22, 0x25	; 37
    121f:	74 69       	ori	r23, 0x94	; 148
    1221:	6f 6e       	ori	r22, 0xEF	; 239
    1223:	45 72       	andi	r20, 0x25	; 37
    1225:	72 6f       	ori	r23, 0xF2	; 242
    1227:	72 03       	mulsu	r23, r18
    1229:	03 00       	.word	0x0003	; ????
    122b:	69 70       	andi	r22, 0x09	; 9
    122d:	6d 03       	fmul	r22, r21
    122f:	0c 00       	.word	0x000c	; ????
    1231:	00 01       	movw	r0, r0
    1233:	03 04       	cpc	r0, r3
    1235:	09 01       	movw	r0, r18
    1237:	0c 01       	movw	r0, r24
    1239:	0f 01       	movw	r0, r30
    123b:	0a 04       	cpc	r0, r10
    123d:	03 19       	sub	r16, r3
    123f:	00 6b       	ori	r16, 0xB0	; 176
    1241:	65 72       	andi	r22, 0x25	; 37
    1243:	6e 65       	ori	r22, 0x5E	; 94
    1245:	6c 2f       	mov	r22, r28
    1247:	70 79       	andi	r23, 0x90	; 144
    1249:	74 68       	ori	r23, 0x84	; 132
    124b:	6f 6e       	ori	r22, 0xEF	; 239
    124d:	2f 6c       	ori	r18, 0xCF	; 207
    124f:	69 62       	ori	r22, 0x29	; 41
    1251:	2f 69       	ori	r18, 0x9F	; 159
    1253:	70 6d       	ori	r23, 0xD0	; 208
    1255:	2e 70       	andi	r18, 0x0E	; 14
    1257:	79 00       	.word	0x0079	; ????
    1259:	04 01       	movw	r0, r8
    125b:	00 04       	cpc	r0, r0
    125d:	00 78       	andi	r16, 0x80	; 128
    125f:	2e 00       	.word	0x002e	; ????
    1261:	74 00       	.word	0x0074	; ????
    1263:	00 83       	st	Z, r16
    1265:	00 00       	nop
    1267:	7d 01       	movw	r14, r26
    1269:	00 74       	andi	r16, 0x40	; 64
    126b:	01 00       	.word	0x0001	; ????
    126d:	7c 01       	movw	r14, r24
    126f:	00 83       	st	Z, r16
    1271:	01 00       	.word	0x0001	; ????
    1273:	7d 02       	muls	r23, r29
    1275:	00 74       	andi	r16, 0x40	; 64
    1277:	02 00       	.word	0x0002	; ????
    1279:	7c 02       	muls	r23, r28
    127b:	00 7c       	andi	r16, 0xC0	; 192
    127d:	00 00       	nop
    127f:	83 02       	muls	r24, r19
    1281:	00 7d       	andi	r16, 0xD0	; 208
    1283:	03 00       	.word	0x0003	; ????
    1285:	74 03       	mulsu	r23, r20
    1287:	00 83       	st	Z, r16
    1289:	00 00       	nop
    128b:	01 71       	andi	r16, 0x11	; 17
    128d:	03 00       	.word	0x0003	; ????
    128f:	74 04       	cpc	r7, r4
    1291:	00 70       	andi	r16, 0x00	; 0
    1293:	07 00       	.word	0x0007	; ????
    1295:	01 74       	andi	r16, 0x41	; 65
    1297:	05 00       	.word	0x0005	; ????
    1299:	82 01       	movw	r16, r4
    129b:	00 01       	movw	r0, r0
    129d:	64 00       	.word	0x0064	; ????
    129f:	00 53       	subi	r16, 0x30	; 48
    12a1:	00 04       	cpc	r0, r0
    12a3:	00 64       	ori	r16, 0x40	; 64
    12a5:	00 00       	nop
    12a7:	84 00       	.word	0x0084	; ????
    12a9:	00 5a       	subi	r16, 0xA0	; 160
    12ab:	00 00       	nop
    12ad:	64 01       	movw	r12, r8
    12af:	00 84       	ldd	r0, Z+8	; 0x08
    12b1:	00 00       	nop
    12b3:	5a 01       	movw	r10, r20
    12b5:	00 68       	ori	r16, 0x80	; 128
    12b7:	00 00       	nop
    12b9:	64 02       	muls	r22, r20
    12bb:	00 84       	ldd	r0, Z+8	; 0x08
    12bd:	01 00       	.word	0x0001	; ????
    12bf:	5a 02       	muls	r21, r26
    12c1:	00 64       	ori	r16, 0x40	; 64
    12c3:	03 00       	.word	0x0003	; ????
    12c5:	53 0a       	sbc	r5, r19
    12c7:	6e 01       	movw	r12, r28
    12c9:	00 40       	sbci	r16, 0x00	; 0
    12cb:	01 00       	.word	0x0001	; ????
    12cd:	00 16       	cp	r0, r16
    12cf:	00 04       	cpc	r0, r0
    12d1:	0a 03       	fmul	r16, r18
    12d3:	06 00       	.word	0x0006	; ????
    12d5:	6d 61       	ori	r22, 0x1D	; 29
    12d7:	78 69       	ori	r23, 0x98	; 152
    12d9:	6e 74       	andi	r22, 0x4E	; 78
    12db:	03 04       	cpc	r0, r3
    12dd:	00 65       	ori	r16, 0x50	; 80
    12df:	78 69       	ori	r23, 0x98	; 152
    12e1:	74 03       	mulsu	r23, r20
    12e3:	02 00       	.word	0x0002	; ????
    12e5:	67 63       	ori	r22, 0x37	; 55
    12e7:	03 04       	cpc	r0, r3
    12e9:	00 67       	ori	r16, 0x70	; 112
    12eb:	65 74       	andi	r22, 0x45	; 69
    12ed:	62 03       	mulsu	r22, r18
    12ef:	04 00       	.word	0x0004	; ????
    12f1:	68 65       	ori	r22, 0x58	; 88
    12f3:	61 70       	andi	r22, 0x01	; 1
    12f5:	03 04       	cpc	r0, r3
    12f7:	00 70       	andi	r16, 0x00	; 0
    12f9:	75 74       	andi	r23, 0x45	; 69
    12fb:	62 03       	mulsu	r22, r18
    12fd:	0b 00       	.word	0x000b	; ????
    12ff:	72 75       	andi	r23, 0x52	; 82
    1301:	6e 49       	sbci	r22, 0x9E	; 158
    1303:	6e 54       	subi	r22, 0x4E	; 78
    1305:	68 72       	andi	r22, 0x28	; 40
    1307:	65 61       	ori	r22, 0x15	; 21
    1309:	64 03       	mulsu	r22, r20
    130b:	04 00       	.word	0x0004	; ????
    130d:	74 69       	ori	r23, 0x94	; 148
    130f:	6d 65       	ori	r22, 0x5D	; 93
    1311:	03 04       	cpc	r0, r3
    1313:	00 77       	andi	r16, 0x70	; 112
    1315:	61 69       	ori	r22, 0x91	; 145
    1317:	74 03       	mulsu	r23, r20
    1319:	03 00       	.word	0x0003	; ????
    131b:	73 79       	andi	r23, 0x93	; 147
    131d:	73 03       	mulsu	r23, r19
    131f:	10 00       	.word	0x0010	; ????
    1321:	06 03       	mulsu	r16, r22
    1323:	09 23       	and	r16, r25
    1325:	09 18       	sub	r0, r9
    1327:	09 1a       	sub	r0, r25
    1329:	09 30       	cpi	r16, 0x09	; 9
    132b:	09 21       	and	r16, r9
    132d:	09 1e       	adc	r0, r25
    132f:	09 26       	eor	r0, r25
    1331:	03 19       	sub	r16, r3
    1333:	00 6b       	ori	r16, 0xB0	; 176
    1335:	65 72       	andi	r22, 0x25	; 37
    1337:	6e 65       	ori	r22, 0x5E	; 94
    1339:	6c 2f       	mov	r22, r28
    133b:	70 79       	andi	r23, 0x90	; 144
    133d:	74 68       	ori	r23, 0x84	; 132
    133f:	6f 6e       	ori	r22, 0xEF	; 239
    1341:	2f 6c       	ori	r18, 0xCF	; 207
    1343:	69 62       	ori	r22, 0x29	; 41
    1345:	2f 73       	andi	r18, 0x3F	; 63
    1347:	79 73       	andi	r23, 0x39	; 57
    1349:	2e 70       	andi	r18, 0x0E	; 14
    134b:	79 00       	.word	0x0079	; ????
    134d:	04 0a       	sbc	r0, r20
    134f:	01 ff       	sbrs	r16, 1
    1351:	ff ff       	.word	0xffff	; ????
    1353:	7f 0b       	sbc	r23, r31
    1355:	01 02       	muls	r16, r17
    1357:	00 0b       	sbc	r16, r16
    1359:	00 03       	mulsu	r16, r16
    135b:	00 0b       	sbc	r16, r16
    135d:	00 04       	cpc	r0, r0
    135f:	00 0b       	sbc	r16, r16
    1361:	00 05       	cpc	r16, r0
    1363:	00 0b       	sbc	r16, r16
    1365:	01 06       	cpc	r0, r17
    1367:	00 0b       	sbc	r16, r16
    1369:	01 07       	cpc	r16, r17
    136b:	00 0b       	sbc	r16, r16
    136d:	00 08       	sbc	r0, r0
    136f:	00 0a       	sbc	r0, r16
    1371:	6f 00       	.word	0x006f	; ????
    1373:	01 43       	sbci	r16, 0x31	; 49
    1375:	02 02       	muls	r16, r18
    1377:	00 03       	mulsu	r16, r16
    1379:	01 04       	cpc	r0, r1
    137b:	02 03       	mulsu	r16, r18
    137d:	04 00       	.word	0x0004	; ????
    137f:	74 69       	ori	r23, 0x94	; 148
    1381:	6d 65       	ori	r22, 0x5D	; 93
    1383:	03 04       	cpc	r0, r3
    1385:	00 77       	andi	r16, 0x70	; 112
    1387:	61 69       	ori	r22, 0x91	; 145
    1389:	74 03       	mulsu	r23, r20
    138b:	08 00       	.word	0x0008	; ????
    138d:	00 01       	movw	r0, r0
    138f:	0d 01       	movw	r0, r26
    1391:	03 00       	.word	0x0003	; ????
    1393:	10 01       	movw	r2, r0
    1395:	03 19       	sub	r16, r3
    1397:	00 6b       	ori	r16, 0xB0	; 176
    1399:	65 72       	andi	r22, 0x25	; 37
    139b:	6e 65       	ori	r22, 0x5E	; 94
    139d:	6c 2f       	mov	r22, r28
    139f:	70 79       	andi	r23, 0x90	; 144
    13a1:	74 68       	ori	r23, 0x84	; 132
    13a3:	6f 6e       	ori	r22, 0xEF	; 239
    13a5:	2f 6c       	ori	r18, 0xCF	; 207
    13a7:	69 62       	ori	r22, 0x29	; 41
    13a9:	2f 73       	andi	r18, 0x3F	; 63
    13ab:	79 73       	andi	r23, 0x39	; 57
    13ad:	2e 70       	andi	r18, 0x0E	; 14
    13af:	79 00       	.word	0x0079	; ????
    13b1:	04 01       	movw	r0, r8
    13b3:	00 04       	cpc	r0, r0
    13b5:	00 74       	andi	r16, 0x40	; 64
    13b7:	00 00       	nop
    13b9:	83 00       	.word	0x0083	; ????
    13bb:	00 7c       	andi	r16, 0xC0	; 192
    13bd:	00 00       	nop
    13bf:	17 7d       	andi	r17, 0xD7	; 215
    13c1:	01 00       	.word	0x0001	; ????
    13c3:	78 15       	cp	r23, r8
    13c5:	00 74       	andi	r16, 0x40	; 64
    13c7:	00 00       	nop
    13c9:	83 00       	.word	0x0083	; ????
    13cb:	00 7c       	andi	r16, 0xC0	; 192
    13cd:	01 00       	.word	0x0001	; ????
    13cf:	6a 00       	.word	0x006a	; ????
    13d1:	00 6f       	ori	r16, 0xF0	; 240
    13d3:	04 00       	.word	0x0004	; ????
    13d5:	01 71       	andi	r16, 0x11	; 17
    13d7:	10 00       	.word	0x0010	; ????
    13d9:	01 57       	subi	r16, 0x71	; 113
    13db:	64 00       	.word	0x0064	; ????
    13dd:	00 53       	subi	r16, 0x30	; 48
    13df:	00 04       	cpc	r0, r0
    13e1:	00 64       	ori	r16, 0x40	; 64
    13e3:	00 00       	nop
    13e5:	5a 00       	.word	0x005a	; ????
    13e7:	00 64       	ori	r16, 0x40	; 64
    13e9:	01 00       	.word	0x0001	; ????
    13eb:	84 00       	.word	0x0084	; ????
    13ed:	00 5a       	subi	r16, 0xA0	; 160
    13ef:	01 00       	.word	0x0001	; ????
    13f1:	64 02       	muls	r22, r20
    13f3:	00 84       	ldd	r0, Z+8	; 0x08
    13f5:	00 00       	nop
    13f7:	5a 02       	muls	r21, r26
    13f9:	00 64       	ori	r16, 0x40	; 64
    13fb:	03 00       	.word	0x0003	; ????
    13fd:	84 00       	.word	0x0084	; ????
    13ff:	00 5a       	subi	r16, 0xA0	; 160
    1401:	03 00       	.word	0x0003	; ????
    1403:	64 04       	cpc	r6, r4
    1405:	00 84       	ldd	r0, Z+8	; 0x08
    1407:	00 00       	nop
    1409:	5a 04       	cpc	r5, r10
    140b:	00 64       	ori	r16, 0x40	; 64
    140d:	05 00       	.word	0x0005	; ????
    140f:	84 00       	.word	0x0084	; ????
    1411:	00 5a       	subi	r16, 0xA0	; 160
    1413:	05 00       	.word	0x0005	; ????
    1415:	64 06       	cpc	r6, r20
    1417:	00 84       	ldd	r0, Z+8	; 0x08
    1419:	00 00       	nop
    141b:	5a 06       	cpc	r5, r26
    141d:	00 64       	ori	r16, 0x40	; 64
    141f:	07 00       	.word	0x0007	; ????
    1421:	84 00       	.word	0x0084	; ????
    1423:	00 5a       	subi	r16, 0xA0	; 160
    1425:	07 00       	.word	0x0007	; ????
    1427:	64 08       	sbc	r6, r4
    1429:	00 84       	ldd	r0, Z+8	; 0x08
    142b:	00 00       	nop
    142d:	5a 08       	sbc	r5, r10
    142f:	00 64       	ori	r16, 0x40	; 64
    1431:	09 00       	.word	0x0009	; ????
    1433:	53 0a       	sbc	r5, r19
    1435:	ef 03       	fmulsu	r22, r23
    1437:	00 40       	sbci	r16, 0x00	; 0
    1439:	03 00       	.word	0x0003	; ????
    143b:	00 10       	cpse	r0, r0
    143d:	00 04       	cpc	r0, r0
    143f:	0b 03       	fmul	r16, r19
    1441:	07 00       	.word	0x0007	; ????
    1443:	5f 5f       	subi	r21, 0xFF	; 255
    1445:	64 6f       	ori	r22, 0xF4	; 244
    1447:	63 5f       	subi	r22, 0xF3	; 243
    1449:	5f 03       	fmul	r21, r23
    144b:	08 00       	.word	0x0008	; ????
    144d:	5f 5f       	subi	r21, 0xFF	; 255
    144f:	6e 61       	ori	r22, 0x1E	; 30
    1451:	6d 65       	ori	r22, 0x5D	; 93
    1453:	5f 5f       	subi	r21, 0xFF	; 255
    1455:	03 08       	sbc	r0, r3
    1457:	00 5f       	subi	r16, 0xF0	; 240
    1459:	41 75       	andi	r20, 0x51	; 81
    145b:	74 6f       	ori	r23, 0xF4	; 244
    145d:	62 6f       	ori	r22, 0xF2	; 242
    145f:	78 03       	fmul	r23, r16
    1461:	06 00       	.word	0x0006	; ????
    1463:	64 69       	ori	r22, 0x94	; 148
    1465:	67 69       	ori	r22, 0x97	; 151
    1467:	74 73       	andi	r23, 0x34	; 52
    1469:	03 09       	sbc	r16, r3
    146b:	00 68       	ori	r16, 0x80	; 128
    146d:	65 78       	andi	r22, 0x85	; 133
    146f:	64 69       	ori	r22, 0x94	; 148
    1471:	67 69       	ori	r22, 0x97	; 151
    1473:	74 73       	andi	r23, 0x34	; 52
    1475:	03 07       	cpc	r16, r19
    1477:	00 6c       	ori	r16, 0xC0	; 192
    1479:	65 74       	andi	r22, 0x45	; 69
    147b:	74 65       	ori	r23, 0x54	; 84
    147d:	72 73       	andi	r23, 0x32	; 50
    147f:	03 04       	cpc	r0, r3
    1481:	00 61       	ori	r16, 0x10	; 16
    1483:	74 6f       	ori	r23, 0xF4	; 244
    1485:	69 03       	fmul	r22, r17
    1487:	05 00       	.word	0x0005	; ????
    1489:	63 6f       	ori	r22, 0xF3	; 243
    148b:	75 6e       	ori	r23, 0xE5	; 229
    148d:	74 03       	mulsu	r23, r20
    148f:	04 00       	.word	0x0004	; ????
    1491:	66 69       	ori	r22, 0x96	; 150
    1493:	6e 64       	ori	r22, 0x4E	; 78
    1495:	03 04       	cpc	r0, r3
    1497:	00 6a       	ori	r16, 0xA0	; 160
    1499:	6f 69       	ori	r22, 0x9F	; 159
    149b:	6e 03       	fmul	r22, r22
    149d:	06 00       	.word	0x0006	; ????
    149f:	73 74       	andi	r23, 0x43	; 67
    14a1:	72 69       	ori	r23, 0x92	; 146
    14a3:	6e 67       	ori	r22, 0x7E	; 126
    14a5:	03 12       	cpse	r0, r19
    14a7:	00 06       	cpc	r0, r16
    14a9:	03 06       	cpc	r0, r19
    14ab:	03 13       	cpse	r16, r19
    14ad:	0b 06       	cpc	r0, r27
    14af:	01 06       	cpc	r0, r17
    14b1:	01 06       	cpc	r0, r17
    14b3:	07 09       	sbc	r16, r7
    14b5:	45 09       	sbc	r20, r5
    14b7:	57 09       	sbc	r21, r7
    14b9:	3b 03       	fmul	r19, r19
    14bb:	1c 00       	.word	0x001c	; ????
    14bd:	6b 65       	ori	r22, 0x5B	; 91
    14bf:	72 6e       	ori	r23, 0xE2	; 226
    14c1:	65 6c       	ori	r22, 0xC5	; 197
    14c3:	2f 70       	andi	r18, 0x0F	; 15
    14c5:	79 74       	andi	r23, 0x49	; 73
    14c7:	68 6f       	ori	r22, 0xF8	; 248
    14c9:	6e 2f       	mov	r22, r30
    14cb:	6c 69       	ori	r22, 0x9C	; 156
    14cd:	62 2f       	mov	r22, r18
    14cf:	73 74       	andi	r23, 0x43	; 67
    14d1:	72 69       	ori	r23, 0x92	; 146
    14d3:	6e 67       	ori	r22, 0x7E	; 126
    14d5:	2e 70       	andi	r18, 0x0E	; 14
    14d7:	79 00       	.word	0x0079	; ????
    14d9:	04 0e       	add	r0, r20
    14db:	00 03       	mulsu	r16, r16
    14dd:	06 00       	.word	0x0006	; ????
    14df:	73 74       	andi	r23, 0x43	; 67
    14e1:	72 69       	ori	r23, 0x92	; 146
    14e3:	6e 67       	ori	r22, 0x7E	; 126
    14e5:	03 08       	sbc	r0, r3
    14e7:	00 5f       	subi	r16, 0xF0	; 240
    14e9:	41 75       	andi	r20, 0x51	; 81
    14eb:	74 6f       	ori	r23, 0xF4	; 244
    14ed:	62 6f       	ori	r22, 0xF2	; 242
    14ef:	78 0a       	sbc	r7, r24
    14f1:	a1 01       	movw	r20, r2
    14f3:	00 42       	sbci	r16, 0x20	; 32
    14f5:	01 00       	.word	0x0001	; ????
    14f7:	00 16       	cp	r0, r16
    14f9:	00 04       	cpc	r0, r0
    14fb:	06 03       	mulsu	r16, r22
    14fd:	08 00       	.word	0x0008	; ????
    14ff:	5f 5f       	subi	r21, 0xFF	; 255
    1501:	6e 61       	ori	r22, 0x1E	; 30
    1503:	6d 65       	ori	r22, 0x5D	; 93
    1505:	5f 5f       	subi	r21, 0xFF	; 255
    1507:	03 0a       	sbc	r0, r19
    1509:	00 5f       	subi	r16, 0xF0	; 240
    150b:	5f 6d       	ori	r21, 0xDF	; 223
    150d:	6f 64       	ori	r22, 0x4F	; 79
    150f:	75 6c       	ori	r23, 0xC5	; 197
    1511:	65 5f       	subi	r22, 0xF5	; 245
    1513:	5f 03       	fmul	r21, r23
    1515:	04 00       	.word	0x0004	; ????
    1517:	6a 6f       	ori	r22, 0xFA	; 250
    1519:	69 6e       	ori	r22, 0xE9	; 233
    151b:	03 05       	cpc	r16, r3
    151d:	00 63       	ori	r16, 0x30	; 48
    151f:	6f 75       	andi	r22, 0x5F	; 95
    1521:	6e 74       	andi	r22, 0x4E	; 78
    1523:	03 04       	cpc	r0, r3
    1525:	00 66       	ori	r16, 0x60	; 96
    1527:	69 6e       	ori	r22, 0xE9	; 233
    1529:	64 03       	mulsu	r22, r20
    152b:	08 00       	.word	0x0008	; ????
    152d:	5f 41       	sbci	r21, 0x1F	; 31
    152f:	75 74       	andi	r23, 0x45	; 69
    1531:	6f 62       	ori	r22, 0x2F	; 47
    1533:	6f 78       	andi	r22, 0x8F	; 143
    1535:	03 06       	cpc	r0, r19
    1537:	00 06       	cpc	r0, r16
    1539:	01 09       	sbc	r16, r1
    153b:	03 09       	sbc	r16, r3
    153d:	03 03       	mulsu	r16, r19
    153f:	1c 00       	.word	0x001c	; ????
    1541:	6b 65       	ori	r22, 0x5B	; 91
    1543:	72 6e       	ori	r23, 0xE2	; 226
    1545:	65 6c       	ori	r22, 0xC5	; 197
    1547:	2f 70       	andi	r18, 0x0F	; 15
    1549:	79 74       	andi	r23, 0x49	; 73
    154b:	68 6f       	ori	r22, 0xF8	; 248
    154d:	6e 2f       	mov	r22, r30
    154f:	6c 69       	ori	r22, 0x9C	; 156
    1551:	62 2f       	mov	r22, r18
    1553:	73 74       	andi	r23, 0x43	; 67
    1555:	72 69       	ori	r23, 0x92	; 146
    1557:	6e 67       	ori	r22, 0x7E	; 126
    1559:	2e 70       	andi	r18, 0x0E	; 14
    155b:	79 00       	.word	0x0079	; ????
    155d:	04 03       	mulsu	r16, r20
    155f:	0a 59       	subi	r16, 0x9A	; 154
    1561:	00 02       	muls	r16, r16
    1563:	43 03       	mulsu	r20, r19
    1565:	02 00       	.word	0x0002	; ????
    1567:	17 00       	.word	0x0017	; ????
    1569:	04 03       	mulsu	r16, r20
    156b:	03 04       	cpc	r0, r3
    156d:	00 6a       	ori	r16, 0xA0	; 160
    156f:	6f 69       	ori	r22, 0x9F	; 159
    1571:	6e 03       	fmul	r22, r22
    1573:	03 00       	.word	0x0003	; ????
    1575:	6f 62       	ori	r22, 0x2F	; 47
    1577:	6a 03       	fmul	r22, r18
    1579:	04 00       	.word	0x0004	; ????
    157b:	6a 6f       	ori	r22, 0xFA	; 250
    157d:	69 6e       	ori	r22, 0xE9	; 233
    157f:	03 02       	muls	r16, r19
    1581:	00 00       	nop
    1583:	01 03       	mulsu	r16, r17
    1585:	1c 00       	.word	0x001c	; ????
    1587:	6b 65       	ori	r22, 0x5B	; 91
    1589:	72 6e       	ori	r23, 0xE2	; 226
    158b:	65 6c       	ori	r22, 0xC5	; 197
    158d:	2f 70       	andi	r18, 0x0F	; 15
    158f:	79 74       	andi	r23, 0x49	; 73
    1591:	68 6f       	ori	r22, 0xF8	; 248
    1593:	6e 2f       	mov	r22, r30
    1595:	6c 69       	ori	r22, 0x9C	; 156
    1597:	62 2f       	mov	r22, r18
    1599:	73 74       	andi	r23, 0x43	; 67
    159b:	72 69       	ori	r23, 0x92	; 146
    159d:	6e 67       	ori	r22, 0x7E	; 126
    159f:	2e 70       	andi	r18, 0x0E	; 14
    15a1:	79 00       	.word	0x0079	; ????
    15a3:	04 01       	movw	r0, r8
    15a5:	00 04       	cpc	r0, r0
    15a7:	00 74       	andi	r16, 0x40	; 64
    15a9:	00 00       	nop
    15ab:	7c 00       	.word	0x007c	; ????
    15ad:	00 69       	ori	r16, 0x90	; 144
    15af:	01 00       	.word	0x0001	; ????
    15b1:	7c 01       	movw	r14, r24
    15b3:	00 83       	st	Z, r16
    15b5:	02 00       	.word	0x0002	; ????
    15b7:	53 0a       	sbc	r5, r19
    15b9:	5b 00       	.word	0x005b	; ????
    15bb:	02 43       	sbci	r16, 0x32	; 50
    15bd:	03 02       	muls	r16, r19
    15bf:	00 1a       	sub	r0, r16
    15c1:	00 04       	cpc	r0, r0
    15c3:	03 03       	mulsu	r16, r19
    15c5:	05 00       	.word	0x0005	; ????
    15c7:	63 6f       	ori	r22, 0xF3	; 243
    15c9:	75 6e       	ori	r23, 0xE5	; 229
    15cb:	74 03       	mulsu	r23, r20
    15cd:	03 00       	.word	0x0003	; ????
    15cf:	6f 62       	ori	r22, 0x2F	; 47
    15d1:	6a 03       	fmul	r22, r18
    15d3:	05 00       	.word	0x0005	; ????
    15d5:	63 6f       	ori	r22, 0xF3	; 243
    15d7:	75 6e       	ori	r23, 0xE5	; 229
    15d9:	74 03       	mulsu	r23, r20
    15db:	02 00       	.word	0x0002	; ????
    15dd:	00 01       	movw	r0, r0
    15df:	03 1c       	adc	r0, r3
    15e1:	00 6b       	ori	r16, 0xB0	; 176
    15e3:	65 72       	andi	r22, 0x25	; 37
    15e5:	6e 65       	ori	r22, 0x5E	; 94
    15e7:	6c 2f       	mov	r22, r28
    15e9:	70 79       	andi	r23, 0x90	; 144
    15eb:	74 68       	ori	r23, 0x84	; 132
    15ed:	6f 6e       	ori	r22, 0xEF	; 239
    15ef:	2f 6c       	ori	r18, 0xCF	; 207
    15f1:	69 62       	ori	r22, 0x29	; 41
    15f3:	2f 73       	andi	r18, 0x3F	; 63
    15f5:	74 72       	andi	r23, 0x24	; 36
    15f7:	69 6e       	ori	r22, 0xE9	; 233
    15f9:	67 2e       	mov	r6, r23
    15fb:	70 79       	andi	r23, 0x90	; 144
    15fd:	00 04       	cpc	r0, r0
    15ff:	01 00       	.word	0x0001	; ????
    1601:	04 00       	.word	0x0004	; ????
    1603:	74 00       	.word	0x0074	; ????
    1605:	00 7c       	andi	r16, 0xC0	; 192
    1607:	00 00       	nop
    1609:	69 01       	movw	r12, r18
    160b:	00 7c       	andi	r16, 0xC0	; 192
    160d:	01 00       	.word	0x0001	; ????
    160f:	83 02       	muls	r24, r19
    1611:	00 53       	subi	r16, 0x30	; 48
    1613:	0a 59       	subi	r16, 0x9A	; 154
    1615:	00 02       	muls	r16, r16
    1617:	43 03       	mulsu	r20, r19
    1619:	02 00       	.word	0x0002	; ????
    161b:	1d 00       	.word	0x001d	; ????
    161d:	04 03       	mulsu	r16, r20
    161f:	03 04       	cpc	r0, r3
    1621:	00 66       	ori	r16, 0x60	; 96
    1623:	69 6e       	ori	r22, 0xE9	; 233
    1625:	64 03       	mulsu	r22, r20
    1627:	03 00       	.word	0x0003	; ????
    1629:	6f 62       	ori	r22, 0x2F	; 47
    162b:	6a 03       	fmul	r22, r18
    162d:	04 00       	.word	0x0004	; ????
    162f:	66 69       	ori	r22, 0x96	; 150
    1631:	6e 64       	ori	r22, 0x4E	; 78
    1633:	03 02       	muls	r16, r19
    1635:	00 00       	nop
    1637:	01 03       	mulsu	r16, r17
    1639:	1c 00       	.word	0x001c	; ????
    163b:	6b 65       	ori	r22, 0x5B	; 91
    163d:	72 6e       	ori	r23, 0xE2	; 226
    163f:	65 6c       	ori	r22, 0xC5	; 197
    1641:	2f 70       	andi	r18, 0x0F	; 15
    1643:	79 74       	andi	r23, 0x49	; 73
    1645:	68 6f       	ori	r22, 0xF8	; 248
    1647:	6e 2f       	mov	r22, r30
    1649:	6c 69       	ori	r22, 0x9C	; 156
    164b:	62 2f       	mov	r22, r18
    164d:	73 74       	andi	r23, 0x43	; 67
    164f:	72 69       	ori	r23, 0x92	; 146
    1651:	6e 67       	ori	r22, 0x7E	; 126
    1653:	2e 70       	andi	r18, 0x0E	; 14
    1655:	79 00       	.word	0x0079	; ????
    1657:	04 01       	movw	r0, r8
    1659:	00 04       	cpc	r0, r0
    165b:	00 74       	andi	r16, 0x40	; 64
    165d:	00 00       	nop
    165f:	7c 00       	.word	0x007c	; ????
    1661:	00 69       	ori	r16, 0x90	; 144
    1663:	01 00       	.word	0x0001	; ????
    1665:	7c 01       	movw	r14, r24
    1667:	00 83       	st	Z, r16
    1669:	02 00       	.word	0x0002	; ????
    166b:	53 04       	cpc	r5, r3
    166d:	00 65       	ori	r16, 0x50	; 80
    166f:	00 00       	nop
    1671:	5a 01       	movw	r10, r20
    1673:	00 64       	ori	r16, 0x40	; 64
    1675:	00 00       	nop
    1677:	84 00       	.word	0x0084	; ????
    1679:	00 5a       	subi	r16, 0xA0	; 160
    167b:	02 00       	.word	0x0002	; ????
    167d:	64 01       	movw	r12, r8
    167f:	00 84       	ldd	r0, Z+8	; 0x08
    1681:	00 00       	nop
    1683:	5a 03       	fmul	r21, r18
    1685:	00 64       	ori	r16, 0x40	; 64
    1687:	02 00       	.word	0x0002	; ????
    1689:	84 00       	.word	0x0084	; ????
    168b:	00 5a       	subi	r16, 0xA0	; 160
    168d:	04 00       	.word	0x0004	; ????
    168f:	52 53       	subi	r21, 0x32	; 50
    1691:	03 0a       	sbc	r0, r19
    1693:	00 30       	cpi	r16, 0x00	; 0
    1695:	31 32       	cpi	r19, 0x21	; 33
    1697:	33 34       	cpi	r19, 0x43	; 67
    1699:	35 36       	cpi	r19, 0x65	; 101
    169b:	37 38       	cpi	r19, 0x87	; 135
    169d:	39 03       	fmul	r19, r17
    169f:	16 00       	.word	0x0016	; ????
    16a1:	30 31       	cpi	r19, 0x10	; 16
    16a3:	32 33       	cpi	r19, 0x32	; 50
    16a5:	34 35       	cpi	r19, 0x54	; 84
    16a7:	36 37       	cpi	r19, 0x76	; 118
    16a9:	38 39       	cpi	r19, 0x98	; 152
    16ab:	61 62       	ori	r22, 0x21	; 33
    16ad:	63 64       	ori	r22, 0x43	; 67
    16af:	65 66       	ori	r22, 0x65	; 101
    16b1:	41 42       	sbci	r20, 0x21	; 33
    16b3:	43 44       	sbci	r20, 0x43	; 67
    16b5:	45 46       	sbci	r20, 0x65	; 101
    16b7:	03 34       	cpi	r16, 0x43	; 67
    16b9:	00 61       	ori	r16, 0x10	; 16
    16bb:	62 63       	ori	r22, 0x32	; 50
    16bd:	64 65       	ori	r22, 0x54	; 84
    16bf:	66 67       	ori	r22, 0x76	; 118
    16c1:	68 69       	ori	r22, 0x98	; 152
    16c3:	6a 6b       	ori	r22, 0xBA	; 186
    16c5:	6c 6d       	ori	r22, 0xDC	; 220
    16c7:	6e 6f       	ori	r22, 0xFE	; 254
    16c9:	70 71       	andi	r23, 0x10	; 16
    16cb:	72 73       	andi	r23, 0x32	; 50
    16cd:	74 75       	andi	r23, 0x54	; 84
    16cf:	76 77       	andi	r23, 0x76	; 118
    16d1:	78 79       	andi	r23, 0x98	; 152
    16d3:	7a 41       	sbci	r23, 0x1A	; 26
    16d5:	42 43       	sbci	r20, 0x32	; 50
    16d7:	44 45       	sbci	r20, 0x54	; 84
    16d9:	46 47       	sbci	r20, 0x76	; 118
    16db:	48 49       	sbci	r20, 0x98	; 152
    16dd:	4a 4b       	sbci	r20, 0xBA	; 186
    16df:	4c 4d       	sbci	r20, 0xDC	; 220
    16e1:	4e 4f       	sbci	r20, 0xFE	; 254
    16e3:	50 51       	subi	r21, 0x10	; 16
    16e5:	52 53       	subi	r21, 0x32	; 50
    16e7:	54 55       	subi	r21, 0x54	; 84
    16e9:	56 57       	subi	r21, 0x76	; 118
    16eb:	58 59       	subi	r21, 0x98	; 152
    16ed:	5a 0b       	sbc	r21, r26
    16ef:	02 09       	sbc	r16, r2
    16f1:	00 0b       	sbc	r16, r16
    16f3:	02 0a       	sbc	r0, r18
    16f5:	00 0b       	sbc	r16, r16
    16f7:	02 0b       	sbc	r16, r18
    16f9:	00 03       	mulsu	r16, r16
    16fb:	01 00       	.word	0x0001	; ????
    16fd:	20 0a       	sbc	r2, r16
    16ff:	c4 00       	.word	0x00c4	; ????
    1701:	02 43       	sbci	r16, 0x32	; 50
    1703:	03 05       	cpc	r16, r3
    1705:	00 01       	movw	r0, r0
    1707:	01 04       	cpc	r0, r1
    1709:	02 03       	mulsu	r16, r18
    170b:	03 00       	.word	0x0003	; ????
    170d:	6c 65       	ori	r22, 0x5C	; 92
    170f:	6e 03       	fmul	r22, r22
    1711:	04 00       	.word	0x0004	; ????
    1713:	6a 6f       	ori	r22, 0xFA	; 250
    1715:	69 6e       	ori	r22, 0xE9	; 233
    1717:	03 14       	cp	r0, r3
    1719:	00 00       	nop
    171b:	01 0c       	add	r0, r1
    171d:	01 0d       	add	r16, r1
    171f:	01 05       	cpc	r16, r1
    1721:	01 0a       	sbc	r0, r17
    1723:	01 06       	cpc	r0, r17
    1725:	01 03       	mulsu	r16, r17
    1727:	00 0d       	add	r16, r0
    1729:	01 12       	cpse	r0, r17
    172b:	01 0f       	add	r16, r17
    172d:	01 03       	mulsu	r16, r17
    172f:	1c 00       	.word	0x001c	; ????
    1731:	6b 65       	ori	r22, 0x5B	; 91
    1733:	72 6e       	ori	r23, 0xE2	; 226
    1735:	65 6c       	ori	r22, 0xC5	; 197
    1737:	2f 70       	andi	r18, 0x0F	; 15
    1739:	79 74       	andi	r23, 0x49	; 73
    173b:	68 6f       	ori	r22, 0xF8	; 248
    173d:	6e 2f       	mov	r22, r30
    173f:	6c 69       	ori	r22, 0x9C	; 156
    1741:	62 2f       	mov	r22, r18
    1743:	73 74       	andi	r23, 0x43	; 67
    1745:	72 69       	ori	r23, 0x92	; 146
    1747:	6e 67       	ori	r22, 0x7E	; 126
    1749:	2e 70       	andi	r18, 0x0E	; 14
    174b:	79 00       	.word	0x0079	; ????
    174d:	04 04       	cpc	r0, r4
    174f:	00 01       	movw	r0, r0
    1751:	00 00       	nop
    1753:	00 00       	nop
    1755:	03 00       	.word	0x0003	; ????
    1757:	00 01       	movw	r0, r0
    1759:	01 00       	.word	0x0001	; ????
    175b:	00 00       	nop
    175d:	04 00       	.word	0x0004	; ????
    175f:	74 00       	.word	0x0074	; ????
    1761:	00 7c       	andi	r16, 0xC0	; 192
    1763:	00 00       	nop
    1765:	83 01       	movw	r16, r6
    1767:	00 7d       	andi	r16, 0xD0	; 208
    1769:	02 00       	.word	0x0002	; ????
    176b:	7c 02       	muls	r23, r28
    176d:	00 64       	ori	r16, 0x40	; 64
    176f:	01 00       	.word	0x0001	; ????
    1771:	6a 02       	muls	r22, r26
    1773:	00 6f       	ori	r16, 0xF0	; 240
    1775:	05 00       	.word	0x0005	; ????
    1777:	01 64       	ori	r16, 0x41	; 65
    1779:	02 00       	.word	0x0002	; ????
    177b:	53 01       	movw	r10, r6
    177d:	7c 00       	.word	0x007c	; ????
    177f:	00 64       	ori	r16, 0x40	; 64
    1781:	01 00       	.word	0x0001	; ????
    1783:	19 7d       	andi	r17, 0xD9	; 217
    1785:	03 00       	.word	0x0003	; ????
    1787:	64 03       	mulsu	r22, r20
    1789:	00 7d       	andi	r16, 0xD0	; 208
    178b:	04 00       	.word	0x0004	; ????
    178d:	78 2e       	mov	r7, r24
    178f:	00 7c       	andi	r16, 0xC0	; 192
    1791:	04 00       	.word	0x0004	; ????
    1793:	7c 02       	muls	r23, r28
    1795:	00 6a       	ori	r16, 0xA0	; 160
    1797:	00 00       	nop
    1799:	6f 20       	and	r6, r15
    179b:	00 01       	movw	r0, r0
    179d:	7c 03       	fmul	r23, r20
    179f:	00 7c       	andi	r16, 0xC0	; 192
    17a1:	01 00       	.word	0x0001	; ????
    17a3:	17 7c       	andi	r17, 0xC7	; 199
    17a5:	00 00       	nop
    17a7:	7c 04       	cpc	r7, r12
    17a9:	00 19       	sub	r16, r0
    17ab:	17 7d       	andi	r17, 0xD7	; 215
    17ad:	03 00       	.word	0x0003	; ????
    17af:	7c 04       	cpc	r7, r12
    17b1:	00 64       	ori	r16, 0x40	; 64
    17b3:	03 00       	.word	0x0003	; ????
    17b5:	37 7d       	andi	r19, 0xD7	; 215
    17b7:	04 00       	.word	0x0004	; ????
    17b9:	71 31       	cpi	r23, 0x11	; 17
    17bb:	00 01       	movw	r0, r0
    17bd:	57 7c       	andi	r21, 0xC7	; 199
    17bf:	03 00       	.word	0x0003	; ????
    17c1:	53 00       	.word	0x0053	; ????
    17c3:	04 00       	.word	0x0004	; ????
    17c5:	04 00       	.word	0x0004	; ????
    17c7:	64 00       	.word	0x0064	; ????
    17c9:	00 5a       	subi	r16, 0xA0	; 160
    17cb:	00 00       	nop
    17cd:	64 01       	movw	r12, r8
    17cf:	00 5a       	subi	r16, 0xA0	; 160
    17d1:	01 00       	.word	0x0001	; ????
    17d3:	64 02       	muls	r22, r20
    17d5:	00 64       	ori	r16, 0x40	; 64
    17d7:	0d 00       	.word	0x000d	; ????
    17d9:	64 03       	mulsu	r22, r20
    17db:	00 84       	ldd	r0, Z+8	; 0x08
    17dd:	00 00       	nop
    17df:	83 00       	.word	0x0083	; ????
    17e1:	00 59       	subi	r16, 0x90	; 144
    17e3:	5a 02       	muls	r21, r26
    17e5:	00 64       	ori	r16, 0x40	; 64
    17e7:	04 00       	.word	0x0004	; ????
    17e9:	5a 03       	fmul	r21, r18
    17eb:	00 64       	ori	r16, 0x40	; 64
    17ed:	05 00       	.word	0x0005	; ????
    17ef:	5a 04       	cpc	r5, r10
    17f1:	00 64       	ori	r16, 0x40	; 64
    17f3:	06 00       	.word	0x0006	; ????
    17f5:	5a 05       	cpc	r21, r10
    17f7:	00 64       	ori	r16, 0x40	; 64
    17f9:	07 00       	.word	0x0007	; ????
    17fb:	84 00       	.word	0x0084	; ????
    17fd:	00 5a       	subi	r16, 0xA0	; 160
    17ff:	06 00       	.word	0x0006	; ????
    1801:	64 08       	sbc	r6, r4
    1803:	00 84       	ldd	r0, Z+8	; 0x08
    1805:	00 00       	nop
    1807:	5a 07       	cpc	r21, r26
    1809:	00 64       	ori	r16, 0x40	; 64
    180b:	09 00       	.word	0x0009	; ????
    180d:	84 00       	.word	0x0084	; ????
    180f:	00 5a       	subi	r16, 0xA0	; 160
    1811:	08 00       	.word	0x0008	; ????
    1813:	64 0a       	sbc	r6, r20
    1815:	00 64       	ori	r16, 0x40	; 64
    1817:	0b 00       	.word	0x000b	; ????
    1819:	84 01       	movw	r16, r8
    181b:	00 5a       	subi	r16, 0xA0	; 160
    181d:	09 00       	.word	0x0009	; ????
    181f:	64 0c       	add	r6, r4
    1821:	00 53       	subi	r16, 0x30	; 48
    1823:	0a 6f       	ori	r16, 0xFA	; 250
    1825:	00 00       	nop
    1827:	40 01       	movw	r8, r0
    1829:	00 00       	nop
    182b:	10 00       	.word	0x0010	; ????
    182d:	04 03       	mulsu	r16, r20
    182f:	03 08       	sbc	r0, r3
    1831:	00 63       	ori	r16, 0x30	; 48
    1833:	6f 5f       	subi	r22, 0xFF	; 255
    1835:	6e 61       	ori	r22, 0x1E	; 30
    1837:	6d 65       	ori	r22, 0x5D	; 93
    1839:	73 03       	mulsu	r23, r19
    183b:	09 00       	.word	0x0009	; ????
    183d:	63 6f       	ori	r22, 0xF3	; 243
    183f:	5f 63       	ori	r21, 0x3F	; 63
    1841:	6f 6e       	ori	r22, 0xEF	; 239
    1843:	73 74       	andi	r23, 0x43	; 67
    1845:	73 03       	mulsu	r23, r19
    1847:	04 00       	.word	0x0004	; ????
    1849:	66 75       	andi	r22, 0x56	; 86
    184b:	6e 63       	ori	r22, 0x3E	; 62
    184d:	03 02       	muls	r16, r19
    184f:	00 09       	sbc	r16, r0
    1851:	17 03       	mulsu	r17, r23
    1853:	1a 00       	.word	0x001a	; ????
    1855:	6b 65       	ori	r22, 0x5B	; 91
    1857:	72 6e       	ori	r23, 0xE2	; 226
    1859:	65 6c       	ori	r22, 0xC5	; 197
    185b:	2f 70       	andi	r18, 0x0F	; 15
    185d:	79 74       	andi	r23, 0x49	; 73
    185f:	68 6f       	ori	r22, 0xF8	; 248
    1861:	6e 2f       	mov	r22, r30
    1863:	6c 69       	ori	r22, 0x9C	; 156
    1865:	62 2f       	mov	r22, r18
    1867:	66 75       	andi	r22, 0x56	; 86
    1869:	6e 63       	ori	r22, 0x3E	; 62
    186b:	2e 70       	andi	r18, 0x0E	; 14
    186d:	79 00       	.word	0x0079	; ????
    186f:	04 03       	mulsu	r16, r20
    1871:	0b 01       	movw	r0, r22
    1873:	0c 00       	.word	0x000c	; ????
    1875:	0b 01       	movw	r0, r22
    1877:	0d 00       	.word	0x000d	; ????
    1879:	00 04       	cpc	r0, r0
    187b:	00 64       	ori	r16, 0x40	; 64
    187d:	00 00       	nop
    187f:	84 00       	.word	0x0084	; ????
    1881:	00 5a       	subi	r16, 0xA0	; 160
    1883:	00 00       	nop
    1885:	64 01       	movw	r12, r8
    1887:	00 84       	ldd	r0, Z+8	; 0x08
    1889:	00 00       	nop
    188b:	5a 01       	movw	r10, r20
    188d:	00 64       	ori	r16, 0x40	; 64
    188f:	02 00       	.word	0x0002	; ????
    1891:	53 0a       	sbc	r5, r19
    1893:	f9 06       	cpc	r15, r25
    1895:	00 40       	sbci	r16, 0x00	; 0
    1897:	03 00       	.word	0x0003	; ????
    1899:	00 12       	cpse	r0, r16
    189b:	00 04       	cpc	r0, r0
    189d:	1a 03       	fmul	r17, r18
    189f:	03 00       	.word	0x0003	; ????
    18a1:	61 62       	ori	r22, 0x21	; 33
    18a3:	73 03       	mulsu	r23, r19
    18a5:	03 00       	.word	0x0003	; ????
    18a7:	63 68       	ori	r22, 0x83	; 131
    18a9:	72 03       	mulsu	r23, r18
    18ab:	03 00       	.word	0x0003	; ????
    18ad:	64 69       	ori	r22, 0x94	; 148
    18af:	72 03       	mulsu	r23, r18
    18b1:	04 00       	.word	0x0004	; ????
    18b3:	65 76       	andi	r22, 0x65	; 101
    18b5:	61 6c       	ori	r22, 0xC1	; 193
    18b7:	03 06       	cpc	r0, r19
    18b9:	00 66       	ori	r16, 0x60	; 96
    18bb:	69 6c       	ori	r22, 0xC9	; 201
    18bd:	74 65       	ori	r23, 0x54	; 84
    18bf:	72 03       	mulsu	r23, r18
    18c1:	07 00       	.word	0x0007	; ????
    18c3:	67 6c       	ori	r22, 0xC7	; 199
    18c5:	6f 62       	ori	r22, 0x2F	; 47
    18c7:	61 6c       	ori	r22, 0xC1	; 193
    18c9:	73 03       	mulsu	r23, r19
    18cb:	02 00       	.word	0x0002	; ????
    18cd:	69 64       	ori	r22, 0x49	; 73
    18cf:	03 03       	mulsu	r16, r19
    18d1:	00 6c       	ori	r16, 0xC0	; 192
    18d3:	65 6e       	ori	r22, 0xE5	; 229
    18d5:	03 06       	cpc	r0, r19
    18d7:	00 6c       	ori	r16, 0xC0	; 192
    18d9:	6f 63       	ori	r22, 0x3F	; 63
    18db:	61 6c       	ori	r22, 0xC1	; 193
    18dd:	73 03       	mulsu	r23, r19
    18df:	03 00       	.word	0x0003	; ????
    18e1:	6d 61       	ori	r22, 0x1D	; 29
    18e3:	70 03       	mulsu	r23, r16
    18e5:	03 00       	.word	0x0003	; ????
    18e7:	6f 72       	andi	r22, 0x2F	; 47
    18e9:	64 03       	mulsu	r22, r20
    18eb:	03 00       	.word	0x0003	; ????
    18ed:	70 6f       	ori	r23, 0xF0	; 240
    18ef:	77 03       	mulsu	r23, r23
    18f1:	05 00       	.word	0x0005	; ????
    18f3:	72 61       	ori	r23, 0x12	; 18
    18f5:	6e 67       	ori	r22, 0x7E	; 126
    18f7:	65 03       	mulsu	r22, r21
    18f9:	03 00       	.word	0x0003	; ????
    18fb:	73 75       	andi	r23, 0x53	; 83
    18fd:	6d 03       	fmul	r22, r21
    18ff:	04 00       	.word	0x0004	; ????
    1901:	74 79       	andi	r23, 0x94	; 148
    1903:	70 65       	ori	r23, 0x50	; 80
    1905:	03 02       	muls	r16, r19
    1907:	00 43       	sbci	r16, 0x30	; 48
    1909:	6f 03       	fmul	r22, r23
    190b:	08 00       	.word	0x0008	; ????
    190d:	5f 5f       	subi	r21, 0xFF	; 255
    190f:	6e 61       	ori	r22, 0x1E	; 30
    1911:	6d 65       	ori	r22, 0x5D	; 93
    1913:	5f 5f       	subi	r21, 0xFF	; 255
    1915:	03 06       	cpc	r0, r19
    1917:	00 6f       	ori	r16, 0xF0	; 240
    1919:	62 6a       	ori	r22, 0xA2	; 162
    191b:	65 63       	ori	r22, 0x35	; 53
    191d:	74 03       	mulsu	r23, r20
    191f:	09 00       	.word	0x0009	; ????
    1921:	45 78       	andi	r20, 0x85	; 133
    1923:	63 65       	ori	r22, 0x53	; 83
    1925:	70 74       	andi	r23, 0x40	; 64
    1927:	69 6f       	ori	r22, 0xF9	; 249
    1929:	6e 03       	fmul	r22, r22
    192b:	0e 00       	.word	0x000e	; ????
    192d:	41 73       	andi	r20, 0x31	; 49
    192f:	73 65       	ori	r23, 0x53	; 83
    1931:	72 74       	andi	r23, 0x42	; 66
    1933:	69 6f       	ori	r22, 0xF9	; 249
    1935:	6e 45       	sbci	r22, 0x5E	; 94
    1937:	72 72       	andi	r23, 0x22	; 34
    1939:	6f 72       	andi	r22, 0x2F	; 47
    193b:	03 04       	cpc	r0, r3
    193d:	00 63       	ori	r16, 0x30	; 48
    193f:	6f 64       	ori	r22, 0x4F	; 79
    1941:	65 03       	mulsu	r22, r21
    1943:	09 00       	.word	0x0009	; ????
    1945:	47 65       	ori	r20, 0x57	; 87
    1947:	6e 65       	ori	r22, 0x5E	; 94
    1949:	72 61       	ori	r23, 0x12	; 18
    194b:	74 6f       	ori	r23, 0xF4	; 244
    194d:	72 03       	mulsu	r23, r18
    194f:	06 00       	.word	0x0006	; ????
    1951:	69 73       	andi	r22, 0x39	; 57
    1953:	6d 61       	ori	r22, 0x1D	; 29
    1955:	69 6e       	ori	r22, 0xE9	; 233
    1957:	03 09       	sbc	r16, r3
    1959:	00 62       	ori	r16, 0x20	; 32
    195b:	79 74       	andi	r23, 0x49	; 73
    195d:	65 61       	ori	r22, 0x15	; 21
    195f:	72 72       	andi	r23, 0x22	; 34
    1961:	61 79       	andi	r22, 0x91	; 145
    1963:	03 04       	cpc	r0, r3
    1965:	00 5f       	subi	r16, 0xF0	; 240
    1967:	5f 6d       	ori	r21, 0xDF	; 223
    1969:	64 03       	mulsu	r22, r20
    196b:	04 00       	.word	0x0004	; ????
    196d:	5f 5f       	subi	r21, 0xFF	; 255
    196f:	62 69       	ori	r22, 0x92	; 146
    1971:	03 30       	cpi	r16, 0x03	; 3
    1973:	00 09       	sbc	r16, r0
    1975:	05 09       	sbc	r16, r5
    1977:	26 09       	sbc	r18, r6
    1979:	5b 09       	sbc	r21, r11
    197b:	64 09       	sbc	r22, r4
    197d:	04 09       	sbc	r16, r4
    197f:	19 09       	sbc	r17, r9
    1981:	1b 09       	sbc	r17, r11
    1983:	43 09       	sbc	r20, r3
    1985:	15 09       	sbc	r17, r5
    1987:	0e 09       	sbc	r16, r14
    1989:	22 09       	sbc	r18, r2
    198b:	04 09       	sbc	r16, r4
    198d:	61 09       	sbc	r22, r1
    198f:	68 09       	sbc	r22, r8
    1991:	25 09       	sbc	r18, r5
    1993:	23 06       	cpc	r2, r19
    1995:	06 13       	cpse	r16, r22
    1997:	07 16       	cp	r0, r23
    1999:	03 16       	cp	r0, r19
    199b:	02 09       	sbc	r16, r2
    199d:	0b 16       	cp	r0, r27
    199f:	a2 09       	sbc	r26, r2
    19a1:	0a 16       	cp	r0, r26
    19a3:	2f 03       	fmul	r18, r23
    19a5:	1a 00       	.word	0x001a	; ????
    19a7:	6b 65       	ori	r22, 0x5B	; 91
    19a9:	72 6e       	ori	r23, 0xE2	; 226
    19ab:	65 6c       	ori	r22, 0xC5	; 197
    19ad:	2f 70       	andi	r18, 0x0F	; 15
    19af:	79 74       	andi	r23, 0x49	; 73
    19b1:	68 6f       	ori	r22, 0xF8	; 248
    19b3:	6e 2f       	mov	r22, r30
    19b5:	6c 69       	ori	r22, 0x9C	; 156
    19b7:	62 2f       	mov	r22, r18
    19b9:	5f 5f       	subi	r21, 0xFF	; 255
    19bb:	62 69       	ori	r22, 0x92	; 146
    19bd:	2e 70       	andi	r18, 0x0E	; 14
    19bf:	79 00       	.word	0x0079	; ????
    19c1:	04 1f       	adc	r16, r20
    19c3:	0a 53       	subi	r16, 0x3A	; 58
    19c5:	00 01       	movw	r0, r0
    19c7:	43 03       	mulsu	r20, r19
    19c9:	01 00       	.word	0x0001	; ????
    19cb:	12 00       	.word	0x0012	; ????
    19cd:	04 01       	movw	r0, r8
    19cf:	03 03       	mulsu	r16, r19
    19d1:	00 61       	ori	r16, 0x10	; 16
    19d3:	62 73       	andi	r22, 0x32	; 50
    19d5:	03 02       	muls	r16, r19
    19d7:	00 00       	nop
    19d9:	02 03       	mulsu	r16, r18
    19db:	1a 00       	.word	0x001a	; ????
    19dd:	6b 65       	ori	r22, 0x5B	; 91
    19df:	72 6e       	ori	r23, 0xE2	; 226
    19e1:	65 6c       	ori	r22, 0xC5	; 197
    19e3:	2f 70       	andi	r18, 0x0F	; 15
    19e5:	79 74       	andi	r23, 0x49	; 73
    19e7:	68 6f       	ori	r22, 0xF8	; 248
    19e9:	6e 2f       	mov	r22, r30
    19eb:	6c 69       	ori	r22, 0x9C	; 156
    19ed:	62 2f       	mov	r22, r18
    19ef:	5f 5f       	subi	r21, 0xFF	; 255
    19f1:	62 69       	ori	r22, 0x92	; 146
    19f3:	2e 70       	andi	r18, 0x0E	; 14
    19f5:	79 00       	.word	0x0079	; ????
    19f7:	04 02       	muls	r16, r20
    19f9:	00 01       	movw	r0, r0
    19fb:	00 00       	nop
    19fd:	00 00       	nop
    19ff:	04 00       	.word	0x0004	; ????
    1a01:	7c 00       	.word	0x007c	; ????
    1a03:	00 7c       	andi	r16, 0xC0	; 192
    1a05:	00 00       	nop
    1a07:	0b 66       	ori	r16, 0x6B	; 107
    1a09:	02 00       	.word	0x0002	; ????
    1a0b:	7c 00       	.word	0x007c	; ????
    1a0d:	00 64       	ori	r16, 0x40	; 64
    1a0f:	01 00       	.word	0x0001	; ????
    1a11:	6a 00       	.word	0x006a	; ????
    1a13:	00 19       	sub	r16, r0
    1a15:	53 0b       	sbc	r21, r19
    1a17:	01 0e       	add	r0, r17
    1a19:	00 0b       	sbc	r16, r16
    1a1b:	01 0f       	add	r16, r17
    1a1d:	00 0b       	sbc	r16, r16
    1a1f:	03 10       	cpse	r0, r3
    1a21:	00 0a       	sbc	r0, r16
    1a23:	6c 00       	.word	0x006c	; ????
    1a25:	02 43       	sbci	r16, 0x32	; 50
    1a27:	04 04       	cpc	r0, r4
    1a29:	00 fc       	sbrc	r0, 0
    1a2b:	00 04       	cpc	r0, r0
    1a2d:	01 03       	mulsu	r16, r17
    1a2f:	06 00       	.word	0x0006	; ????
    1a31:	66 69       	ori	r22, 0x96	; 150
    1a33:	6c 74       	andi	r22, 0x4C	; 76
    1a35:	65 72       	andi	r22, 0x25	; 37
    1a37:	03 02       	muls	r16, r19
    1a39:	00 00       	nop
    1a3b:	01 03       	mulsu	r16, r17
    1a3d:	1a 00       	.word	0x001a	; ????
    1a3f:	6b 65       	ori	r22, 0x5B	; 91
    1a41:	72 6e       	ori	r23, 0xE2	; 226
    1a43:	65 6c       	ori	r22, 0xC5	; 197
    1a45:	2f 70       	andi	r18, 0x0F	; 15
    1a47:	79 74       	andi	r23, 0x49	; 73
    1a49:	68 6f       	ori	r22, 0xF8	; 248
    1a4b:	6e 2f       	mov	r22, r30
    1a4d:	6c 69       	ori	r22, 0x9C	; 156
    1a4f:	62 2f       	mov	r22, r18
    1a51:	5f 5f       	subi	r21, 0xFF	; 255
    1a53:	62 69       	ori	r22, 0x92	; 146
    1a55:	2e 70       	andi	r18, 0x0E	; 14
    1a57:	79 00       	.word	0x0079	; ????
    1a59:	04 01       	movw	r0, r8
    1a5b:	00 04       	cpc	r0, r0
    1a5d:	00 67       	ori	r16, 0x70	; 112
    1a5f:	00 00       	nop
    1a61:	04 7d       	andi	r16, 0xD4	; 212
    1a63:	02 00       	.word	0x0002	; ????
    1a65:	7c 01       	movw	r14, r24
    1a67:	00 44       	sbci	r16, 0x40	; 64
    1a69:	5d 1e       	adc	r5, r29
    1a6b:	00 7d       	andi	r16, 0xD0	; 208
    1a6d:	03 00       	.word	0x0003	; ????
    1a6f:	7c 00       	.word	0x007c	; ????
    1a71:	00 7c       	andi	r16, 0xC0	; 192
    1a73:	03 00       	.word	0x0003	; ????
    1a75:	83 01       	movw	r16, r6
    1a77:	00 6f       	ori	r16, 0xF0	; 240
    1a79:	0b 00       	.word	0x000b	; ????
    1a7b:	01 7c       	andi	r16, 0xC1	; 193
    1a7d:	02 00       	.word	0x0002	; ????
    1a7f:	7c 03       	fmul	r23, r20
    1a81:	00 12       	cpse	r0, r16
    1a83:	71 0b       	sbc	r23, r17
    1a85:	00 01       	movw	r0, r0
    1a87:	71 0b       	sbc	r23, r17
    1a89:	00 7e       	andi	r16, 0xE0	; 224
    1a8b:	02 00       	.word	0x0002	; ????
    1a8d:	53 0b       	sbc	r21, r19
    1a8f:	00 11       	cpse	r16, r0
    1a91:	00 0b       	sbc	r16, r16
    1a93:	01 12       	cpse	r0, r17
    1a95:	00 0b       	sbc	r16, r16
    1a97:	01 13       	cpse	r16, r17
    1a99:	00 0b       	sbc	r16, r16
    1a9b:	00 14       	cp	r0, r0
    1a9d:	00 0a       	sbc	r0, r16
    1a9f:	a4 00       	.word	0x00a4	; ????
    1aa1:	02 43       	sbci	r16, 0x32	; 50
    1aa3:	04 05       	cpc	r16, r4
    1aa5:	00 8c       	ldd	r0, Z+24	; 0x18
    1aa7:	01 04       	cpc	r0, r1
    1aa9:	03 03       	mulsu	r16, r19
    1aab:	04 00       	.word	0x0004	; ????
    1aad:	4e 6f       	ori	r20, 0xFE	; 254
    1aaf:	6e 65       	ori	r22, 0x5E	; 94
    1ab1:	03 03       	mulsu	r16, r19
    1ab3:	00 6c       	ori	r16, 0xC0	; 192
    1ab5:	65 6e       	ori	r22, 0xE5	; 229
    1ab7:	03 03       	mulsu	r16, r19
    1ab9:	00 6d       	ori	r16, 0xD0	; 208
    1abb:	61 70       	andi	r22, 0x01	; 1
    1abd:	03 0e       	add	r0, r19
    1abf:	00 00       	nop
    1ac1:	02 13       	cpse	r16, r18
    1ac3:	03 06       	cpc	r0, r19
    1ac5:	01 07       	cpc	r16, r17
    1ac7:	00 06       	cpc	r0, r16
    1ac9:	01 10       	cpse	r0, r1
    1acb:	01 0e       	add	r0, r17
    1acd:	03 03       	mulsu	r16, r19
    1acf:	1a 00       	.word	0x001a	; ????
    1ad1:	6b 65       	ori	r22, 0x5B	; 91
    1ad3:	72 6e       	ori	r23, 0xE2	; 226
    1ad5:	65 6c       	ori	r22, 0xC5	; 197
    1ad7:	2f 70       	andi	r18, 0x0F	; 15
    1ad9:	79 74       	andi	r23, 0x49	; 73
    1adb:	68 6f       	ori	r22, 0xF8	; 248
    1add:	6e 2f       	mov	r22, r30
    1adf:	6c 69       	ori	r22, 0x9C	; 156
    1ae1:	62 2f       	mov	r22, r18
    1ae3:	5f 5f       	subi	r21, 0xFF	; 255
    1ae5:	62 69       	ori	r22, 0x92	; 146
    1ae7:	2e 70       	andi	r18, 0x0E	; 14
    1ae9:	79 00       	.word	0x0079	; ????
    1aeb:	04 03       	mulsu	r16, r20
    1aed:	00 01       	movw	r0, r0
    1aef:	00 00       	nop
    1af1:	00 00       	nop
    1af3:	01 01       	movw	r0, r2
    1af5:	00 00       	nop
    1af7:	00 04       	cpc	r0, r0
    1af9:	00 64       	ori	r16, 0x40	; 64
    1afb:	00 00       	nop
    1afd:	67 01       	movw	r12, r14
    1aff:	00 74       	andi	r16, 0x40	; 64
    1b01:	01 00       	.word	0x0001	; ????
    1b03:	7c 01       	movw	r14, r24
    1b05:	00 83       	st	Z, r16
    1b07:	01 00       	.word	0x0001	; ????
    1b09:	14 7d       	andi	r17, 0xD4	; 212
    1b0b:	02 00       	.word	0x0002	; ????
    1b0d:	64 01       	movw	r12, r8
    1b0f:	00 7d       	andi	r16, 0xD0	; 208
    1b11:	03 00       	.word	0x0003	; ????
    1b13:	78 28       	or	r7, r8
    1b15:	00 7c       	andi	r16, 0xC0	; 192
    1b17:	01 00       	.word	0x0001	; ????
    1b19:	44 5d       	subi	r20, 0xD4	; 212
    1b1b:	20 00       	.word	0x0020	; ????
    1b1d:	7d 04       	cpc	r7, r13
    1b1f:	00 7c       	andi	r16, 0xC0	; 192
    1b21:	00 00       	nop
    1b23:	7c 04       	cpc	r7, r12
    1b25:	00 83       	st	Z, r16
    1b27:	01 00       	.word	0x0001	; ????
    1b29:	7c 02       	muls	r23, r28
    1b2b:	00 7c       	andi	r16, 0xC0	; 192
    1b2d:	03 00       	.word	0x0003	; ????
    1b2f:	3c 7c       	andi	r19, 0xCC	; 204
    1b31:	03 00       	.word	0x0003	; ????
    1b33:	64 02       	muls	r22, r20
    1b35:	00 37       	cpi	r16, 0x70	; 112
    1b37:	7d 03       	fmul	r23, r21
    1b39:	00 71       	andi	r16, 0x10	; 16
    1b3b:	20 00       	.word	0x0020	; ????
    1b3d:	57 7c       	andi	r21, 0xC7	; 199
    1b3f:	02 00       	.word	0x0002	; ????
    1b41:	53 0b       	sbc	r21, r19
    1b43:	01 15       	cp	r16, r1
    1b45:	00 0a       	sbc	r0, r16
    1b47:	41 00       	.word	0x0041	; ????
    1b49:	02 43       	sbci	r16, 0x32	; 50
    1b4b:	02 02       	muls	r16, r18
    1b4d:	00 bc       	out	0x20, r0	; 32
    1b4f:	01 04       	cpc	r0, r1
    1b51:	01 03       	mulsu	r16, r17
    1b53:	03 00       	.word	0x0003	; ????
    1b55:	70 6f       	ori	r23, 0xF0	; 240
    1b57:	77 03       	mulsu	r23, r23
    1b59:	02 00       	.word	0x0002	; ????
    1b5b:	00 01       	movw	r0, r0
    1b5d:	03 1a       	sub	r0, r19
    1b5f:	00 6b       	ori	r16, 0xB0	; 176
    1b61:	65 72       	andi	r22, 0x25	; 37
    1b63:	6e 65       	ori	r22, 0x5E	; 94
    1b65:	6c 2f       	mov	r22, r28
    1b67:	70 79       	andi	r23, 0x90	; 144
    1b69:	74 68       	ori	r23, 0x84	; 132
    1b6b:	6f 6e       	ori	r22, 0xEF	; 239
    1b6d:	2f 6c       	ori	r18, 0xCF	; 207
    1b6f:	69 62       	ori	r22, 0x29	; 41
    1b71:	2f 5f       	subi	r18, 0xFF	; 255
    1b73:	5f 62       	ori	r21, 0x2F	; 47
    1b75:	69 2e       	mov	r6, r25
    1b77:	70 79       	andi	r23, 0x90	; 144
    1b79:	00 04       	cpc	r0, r0
    1b7b:	01 00       	.word	0x0001	; ????
    1b7d:	04 00       	.word	0x0004	; ????
    1b7f:	7c 00       	.word	0x007c	; ????
    1b81:	00 7c       	andi	r16, 0xC0	; 192
    1b83:	01 00       	.word	0x0001	; ????
    1b85:	13 53       	subi	r17, 0x33	; 51
    1b87:	0b 03       	fmul	r16, r19
    1b89:	16 00       	.word	0x0016	; ????
    1b8b:	0b 01       	movw	r0, r22
    1b8d:	17 00       	.word	0x0017	; ????
    1b8f:	0b 01       	movw	r0, r22
    1b91:	18 00       	.word	0x0018	; ????
    1b93:	0b 01       	movw	r0, r22
    1b95:	19 00       	.word	0x0019	; ????
    1b97:	03 03       	mulsu	r16, r19
    1b99:	00 54       	subi	r16, 0x40	; 64
    1b9b:	42 44       	sbci	r20, 0x42	; 66
    1b9d:	03 06       	cpc	r0, r19
    1b9f:	00 6f       	ori	r16, 0xF0	; 240
    1ba1:	62 6a       	ori	r22, 0xA2	; 162
    1ba3:	65 63       	ori	r22, 0x35	; 53
    1ba5:	74 0a       	sbc	r7, r20
    1ba7:	5b 00       	.word	0x005b	; ????
    1ba9:	00 42       	sbci	r16, 0x20	; 32
    1bab:	01 00       	.word	0x0001	; ????
    1bad:	00 d7       	rcall	.+3584   	; 0x29af <bytearray_new+0x147>
    1baf:	02 04       	cpc	r0, r2
    1bb1:	03 03       	mulsu	r16, r19
    1bb3:	08 00       	.word	0x0008	; ????
    1bb5:	5f 5f       	subi	r21, 0xFF	; 255
    1bb7:	6e 61       	ori	r22, 0x1E	; 30
    1bb9:	6d 65       	ori	r22, 0x5D	; 93
    1bbb:	5f 5f       	subi	r21, 0xFF	; 255
    1bbd:	03 0a       	sbc	r0, r19
    1bbf:	00 5f       	subi	r16, 0xF0	; 240
    1bc1:	5f 6d       	ori	r21, 0xDF	; 223
    1bc3:	6f 64       	ori	r22, 0x4F	; 79
    1bc5:	75 6c       	ori	r23, 0xC5	; 197
    1bc7:	65 5f       	subi	r22, 0xF5	; 245
    1bc9:	5f 03       	fmul	r21, r23
    1bcb:	06 00       	.word	0x0006	; ????
    1bcd:	6f 62       	ori	r22, 0x2F	; 47
    1bcf:	6a 65       	ori	r22, 0x5A	; 90
    1bd1:	63 74       	andi	r22, 0x43	; 67
    1bd3:	03 02       	muls	r16, r19
    1bd5:	00 06       	cpc	r0, r16
    1bd7:	01 03       	mulsu	r16, r17
    1bd9:	1a 00       	.word	0x001a	; ????
    1bdb:	6b 65       	ori	r22, 0x5B	; 91
    1bdd:	72 6e       	ori	r23, 0xE2	; 226
    1bdf:	65 6c       	ori	r22, 0xC5	; 197
    1be1:	2f 70       	andi	r18, 0x0F	; 15
    1be3:	79 74       	andi	r23, 0x49	; 73
    1be5:	68 6f       	ori	r22, 0xF8	; 248
    1be7:	6e 2f       	mov	r22, r30
    1be9:	6c 69       	ori	r22, 0x9C	; 156
    1beb:	62 2f       	mov	r22, r18
    1bed:	5f 5f       	subi	r21, 0xFF	; 255
    1bef:	62 69       	ori	r22, 0x92	; 146
    1bf1:	2e 70       	andi	r18, 0x0E	; 14
    1bf3:	79 00       	.word	0x0079	; ????
    1bf5:	04 00       	.word	0x0004	; ????
    1bf7:	04 00       	.word	0x0004	; ????
    1bf9:	65 00       	.word	0x0065	; ????
    1bfb:	00 5a       	subi	r16, 0xA0	; 160
    1bfd:	01 00       	.word	0x0001	; ????
    1bff:	52 53       	subi	r21, 0x32	; 50
    1c01:	03 09       	sbc	r16, r3
    1c03:	00 45       	sbci	r16, 0x50	; 80
    1c05:	78 63       	ori	r23, 0x38	; 56
    1c07:	65 70       	andi	r22, 0x05	; 5
    1c09:	74 69       	ori	r23, 0x94	; 148
    1c0b:	6f 6e       	ori	r22, 0xEF	; 239
    1c0d:	0a 5e       	subi	r16, 0xEA	; 234
    1c0f:	00 00       	nop
    1c11:	42 01       	movw	r8, r4
    1c13:	00 00       	nop
    1c15:	de 02       	muls	r29, r30
    1c17:	04 03       	mulsu	r16, r20
    1c19:	03 08       	sbc	r0, r3
    1c1b:	00 5f       	subi	r16, 0xF0	; 240
    1c1d:	5f 6e       	ori	r21, 0xEF	; 239
    1c1f:	61 6d       	ori	r22, 0xD1	; 209
    1c21:	65 5f       	subi	r22, 0xF5	; 245
    1c23:	5f 03       	fmul	r21, r23
    1c25:	0a 00       	.word	0x000a	; ????
    1c27:	5f 5f       	subi	r21, 0xFF	; 255
    1c29:	6d 6f       	ori	r22, 0xFD	; 253
    1c2b:	64 75       	andi	r22, 0x54	; 84
    1c2d:	6c 65       	ori	r22, 0x5C	; 92
    1c2f:	5f 5f       	subi	r21, 0xFF	; 255
    1c31:	03 09       	sbc	r16, r3
    1c33:	00 45       	sbci	r16, 0x50	; 80
    1c35:	78 63       	ori	r23, 0x38	; 56
    1c37:	65 70       	andi	r22, 0x05	; 5
    1c39:	74 69       	ori	r23, 0x94	; 148
    1c3b:	6f 6e       	ori	r22, 0xEF	; 239
    1c3d:	03 02       	muls	r16, r19
    1c3f:	00 06       	cpc	r0, r16
    1c41:	01 03       	mulsu	r16, r17
    1c43:	1a 00       	.word	0x001a	; ????
    1c45:	6b 65       	ori	r22, 0x5B	; 91
    1c47:	72 6e       	ori	r23, 0xE2	; 226
    1c49:	65 6c       	ori	r22, 0xC5	; 197
    1c4b:	2f 70       	andi	r18, 0x0F	; 15
    1c4d:	79 74       	andi	r23, 0x49	; 73
    1c4f:	68 6f       	ori	r22, 0xF8	; 248
    1c51:	6e 2f       	mov	r22, r30
    1c53:	6c 69       	ori	r22, 0x9C	; 156
    1c55:	62 2f       	mov	r22, r18
    1c57:	5f 5f       	subi	r21, 0xFF	; 255
    1c59:	62 69       	ori	r22, 0x92	; 146
    1c5b:	2e 70       	andi	r18, 0x0E	; 14
    1c5d:	79 00       	.word	0x0079	; ????
    1c5f:	04 00       	.word	0x0004	; ????
    1c61:	04 00       	.word	0x0004	; ????
    1c63:	65 00       	.word	0x0065	; ????
    1c65:	00 5a       	subi	r16, 0xA0	; 160
    1c67:	01 00       	.word	0x0001	; ????
    1c69:	52 53       	subi	r21, 0x32	; 50
    1c6b:	03 0e       	add	r0, r19
    1c6d:	00 41       	sbci	r16, 0x10	; 16
    1c6f:	73 73       	andi	r23, 0x33	; 51
    1c71:	65 72       	andi	r22, 0x25	; 37
    1c73:	74 69       	ori	r23, 0x94	; 148
    1c75:	6f 6e       	ori	r22, 0xEF	; 239
    1c77:	45 72       	andi	r20, 0x25	; 37
    1c79:	72 6f       	ori	r23, 0xF2	; 242
    1c7b:	72 0a       	sbc	r7, r18
    1c7d:	63 00       	.word	0x0063	; ????
    1c7f:	00 42       	sbci	r16, 0x20	; 32
    1c81:	01 00       	.word	0x0001	; ????
    1c83:	00 e1       	ldi	r16, 0x10	; 16
    1c85:	02 04       	cpc	r0, r2
    1c87:	03 03       	mulsu	r16, r19
    1c89:	08 00       	.word	0x0008	; ????
    1c8b:	5f 5f       	subi	r21, 0xFF	; 255
    1c8d:	6e 61       	ori	r22, 0x1E	; 30
    1c8f:	6d 65       	ori	r22, 0x5D	; 93
    1c91:	5f 5f       	subi	r21, 0xFF	; 255
    1c93:	03 0a       	sbc	r0, r19
    1c95:	00 5f       	subi	r16, 0xF0	; 240
    1c97:	5f 6d       	ori	r21, 0xDF	; 223
    1c99:	6f 64       	ori	r22, 0x4F	; 79
    1c9b:	75 6c       	ori	r23, 0xC5	; 197
    1c9d:	65 5f       	subi	r22, 0xF5	; 245
    1c9f:	5f 03       	fmul	r21, r23
    1ca1:	0e 00       	.word	0x000e	; ????
    1ca3:	41 73       	andi	r20, 0x31	; 49
    1ca5:	73 65       	ori	r23, 0x53	; 83
    1ca7:	72 74       	andi	r23, 0x42	; 66
    1ca9:	69 6f       	ori	r22, 0xF9	; 249
    1cab:	6e 45       	sbci	r22, 0x5E	; 94
    1cad:	72 72       	andi	r23, 0x22	; 34
    1caf:	6f 72       	andi	r22, 0x2F	; 47
    1cb1:	03 02       	muls	r16, r19
    1cb3:	00 06       	cpc	r0, r16
    1cb5:	01 03       	mulsu	r16, r17
    1cb7:	1a 00       	.word	0x001a	; ????
    1cb9:	6b 65       	ori	r22, 0x5B	; 91
    1cbb:	72 6e       	ori	r23, 0xE2	; 226
    1cbd:	65 6c       	ori	r22, 0xC5	; 197
    1cbf:	2f 70       	andi	r18, 0x0F	; 15
    1cc1:	79 74       	andi	r23, 0x49	; 73
    1cc3:	68 6f       	ori	r22, 0xF8	; 248
    1cc5:	6e 2f       	mov	r22, r30
    1cc7:	6c 69       	ori	r22, 0x9C	; 156
    1cc9:	62 2f       	mov	r22, r18
    1ccb:	5f 5f       	subi	r21, 0xFF	; 255
    1ccd:	62 69       	ori	r22, 0x92	; 146
    1ccf:	2e 70       	andi	r18, 0x0E	; 14
    1cd1:	79 00       	.word	0x0079	; ????
    1cd3:	04 00       	.word	0x0004	; ????
    1cd5:	04 00       	.word	0x0004	; ????
    1cd7:	65 00       	.word	0x0065	; ????
    1cd9:	00 5a       	subi	r16, 0xA0	; 160
    1cdb:	01 00       	.word	0x0001	; ????
    1cdd:	52 53       	subi	r21, 0x32	; 50
    1cdf:	01 e4       	ldi	r16, 0x41	; 65
    1ce1:	00 00       	nop
    1ce3:	00 03       	mulsu	r16, r16
    1ce5:	09 00       	.word	0x0009	; ????
    1ce7:	47 65       	ori	r20, 0x57	; 87
    1ce9:	6e 65       	ori	r22, 0x5E	; 94
    1ceb:	72 61       	ori	r23, 0x12	; 18
    1ced:	74 6f       	ori	r23, 0xF4	; 244
    1cef:	72 0a       	sbc	r7, r18
    1cf1:	f3 00       	.word	0x00f3	; ????
    1cf3:	00 42       	sbci	r16, 0x20	; 32
    1cf5:	01 00       	.word	0x0001	; ????
    1cf7:	00 ee       	ldi	r16, 0xE0	; 224
    1cf9:	02 04       	cpc	r0, r2
    1cfb:	06 03       	mulsu	r16, r22
    1cfd:	08 00       	.word	0x0008	; ????
    1cff:	5f 5f       	subi	r21, 0xFF	; 255
    1d01:	6e 61       	ori	r22, 0x1E	; 30
    1d03:	6d 65       	ori	r22, 0x5D	; 93
    1d05:	5f 5f       	subi	r21, 0xFF	; 255
    1d07:	03 0a       	sbc	r0, r19
    1d09:	00 5f       	subi	r16, 0xF0	; 240
    1d0b:	5f 6d       	ori	r21, 0xDF	; 223
    1d0d:	6f 64       	ori	r22, 0x4F	; 79
    1d0f:	75 6c       	ori	r23, 0xC5	; 197
    1d11:	65 5f       	subi	r22, 0xF5	; 245
    1d13:	5f 03       	fmul	r21, r23
    1d15:	08 00       	.word	0x0008	; ????
    1d17:	5f 5f       	subi	r21, 0xFF	; 255
    1d19:	69 6e       	ori	r22, 0xE9	; 233
    1d1b:	69 74       	andi	r22, 0x49	; 73
    1d1d:	5f 5f       	subi	r21, 0xFF	; 255
    1d1f:	03 04       	cpc	r0, r3
    1d21:	00 6e       	ori	r16, 0xE0	; 224
    1d23:	65 78       	andi	r22, 0x85	; 133
    1d25:	74 03       	mulsu	r23, r20
    1d27:	04 00       	.word	0x0004	; ????
    1d29:	73 65       	ori	r23, 0x53	; 83
    1d2b:	6e 64       	ori	r22, 0x4E	; 78
    1d2d:	03 09       	sbc	r16, r3
    1d2f:	00 47       	sbci	r16, 0x70	; 112
    1d31:	65 6e       	ori	r22, 0xE5	; 229
    1d33:	65 72       	andi	r22, 0x25	; 37
    1d35:	61 74       	andi	r22, 0x41	; 65
    1d37:	6f 72       	andi	r22, 0x2F	; 47
    1d39:	03 06       	cpc	r0, r19
    1d3b:	00 06       	cpc	r0, r16
    1d3d:	02 09       	sbc	r16, r2
    1d3f:	37 09       	sbc	r19, r7
    1d41:	04 03       	mulsu	r16, r20
    1d43:	1a 00       	.word	0x001a	; ????
    1d45:	6b 65       	ori	r22, 0x5B	; 91
    1d47:	72 6e       	ori	r23, 0xE2	; 226
    1d49:	65 6c       	ori	r22, 0xC5	; 197
    1d4b:	2f 70       	andi	r18, 0x0F	; 15
    1d4d:	79 74       	andi	r23, 0x49	; 73
    1d4f:	68 6f       	ori	r22, 0xF8	; 248
    1d51:	6e 2f       	mov	r22, r30
    1d53:	6c 69       	ori	r22, 0x9C	; 156
    1d55:	62 2f       	mov	r22, r18
    1d57:	5f 5f       	subi	r21, 0xFF	; 255
    1d59:	62 69       	ori	r22, 0x92	; 146
    1d5b:	2e 70       	andi	r18, 0x0E	; 14
    1d5d:	79 00       	.word	0x0079	; ????
    1d5f:	04 03       	mulsu	r16, r20
    1d61:	0b 02       	muls	r16, r27
    1d63:	1a 00       	.word	0x001a	; ????
    1d65:	0a 55       	subi	r16, 0x5A	; 90
    1d67:	00 01       	movw	r0, r0
    1d69:	43 02       	muls	r20, r19
    1d6b:	01 00       	.word	0x0001	; ????
    1d6d:	27 03       	mulsu	r18, r23
    1d6f:	04 03       	mulsu	r16, r20
    1d71:	03 04       	cpc	r0, r3
    1d73:	00 73       	andi	r16, 0x30	; 48
    1d75:	65 6e       	ori	r22, 0xE5	; 229
    1d77:	64 03       	mulsu	r22, r20
    1d79:	04 00       	.word	0x0004	; ????
    1d7b:	4e 6f       	ori	r20, 0xFE	; 254
    1d7d:	6e 65       	ori	r22, 0x5E	; 94
    1d7f:	03 04       	cpc	r0, r3
    1d81:	00 6e       	ori	r16, 0xE0	; 224
    1d83:	65 78       	andi	r22, 0x85	; 133
    1d85:	74 03       	mulsu	r23, r20
    1d87:	02 00       	.word	0x0002	; ????
    1d89:	00 01       	movw	r0, r0
    1d8b:	03 1a       	sub	r0, r19
    1d8d:	00 6b       	ori	r16, 0xB0	; 176
    1d8f:	65 72       	andi	r22, 0x25	; 37
    1d91:	6e 65       	ori	r22, 0x5E	; 94
    1d93:	6c 2f       	mov	r22, r28
    1d95:	70 79       	andi	r23, 0x90	; 144
    1d97:	74 68       	ori	r23, 0x84	; 132
    1d99:	6f 6e       	ori	r22, 0xEF	; 239
    1d9b:	2f 6c       	ori	r18, 0xCF	; 207
    1d9d:	69 62       	ori	r22, 0x29	; 41
    1d9f:	2f 5f       	subi	r18, 0xFF	; 255
    1da1:	5f 62       	ori	r21, 0x2F	; 47
    1da3:	69 2e       	mov	r6, r25
    1da5:	70 79       	andi	r23, 0x90	; 144
    1da7:	00 04       	cpc	r0, r0
    1da9:	01 00       	.word	0x0001	; ????
    1dab:	04 00       	.word	0x0004	; ????
    1dad:	7c 00       	.word	0x007c	; ????
    1daf:	00 69       	ori	r16, 0x90	; 144
    1db1:	00 00       	nop
    1db3:	64 00       	.word	0x0064	; ????
    1db5:	00 83       	st	Z, r16
    1db7:	01 00       	.word	0x0001	; ????
    1db9:	53 0b       	sbc	r21, r19
    1dbb:	02 1b       	sub	r16, r18
    1dbd:	00 04       	cpc	r0, r0
    1dbf:	00 65       	ori	r16, 0x50	; 80
    1dc1:	00 00       	nop
    1dc3:	5a 01       	movw	r10, r20
    1dc5:	00 64       	ori	r16, 0x40	; 64
    1dc7:	00 00       	nop
    1dc9:	84 00       	.word	0x0084	; ????
    1dcb:	00 5a       	subi	r16, 0xA0	; 160
    1dcd:	02 00       	.word	0x0002	; ????
    1dcf:	64 01       	movw	r12, r8
    1dd1:	00 84       	ldd	r0, Z+8	; 0x08
    1dd3:	00 00       	nop
    1dd5:	5a 03       	fmul	r21, r18
    1dd7:	00 64       	ori	r16, 0x40	; 64
    1dd9:	02 00       	.word	0x0002	; ????
    1ddb:	84 00       	.word	0x0084	; ????
    1ddd:	00 5a       	subi	r16, 0xA0	; 160
    1ddf:	04 00       	.word	0x0004	; ????
    1de1:	52 53       	subi	r21, 0x32	; 50
    1de3:	0b 00       	.word	0x000b	; ????
    1de5:	1c 00       	.word	0x001c	; ????
    1de7:	03 09       	sbc	r16, r3
    1de9:	00 62       	ori	r16, 0x20	; 32
    1deb:	79 74       	andi	r23, 0x49	; 73
    1ded:	65 61       	ori	r22, 0x15	; 21
    1def:	72 72       	andi	r23, 0x22	; 34
    1df1:	61 79       	andi	r22, 0x91	; 145
    1df3:	0a 76       	andi	r16, 0x6A	; 106
    1df5:	00 00       	nop
    1df7:	42 01       	movw	r8, r4
    1df9:	00 00       	nop
    1dfb:	9a 03       	fmulsu	r17, r18
    1dfd:	04 04       	cpc	r0, r4
    1dff:	03 08       	sbc	r0, r3
    1e01:	00 5f       	subi	r16, 0xF0	; 240
    1e03:	5f 6e       	ori	r21, 0xEF	; 239
    1e05:	61 6d       	ori	r22, 0xD1	; 209
    1e07:	65 5f       	subi	r22, 0xF5	; 245
    1e09:	5f 03       	fmul	r21, r23
    1e0b:	0a 00       	.word	0x000a	; ????
    1e0d:	5f 5f       	subi	r21, 0xFF	; 255
    1e0f:	6d 6f       	ori	r22, 0xFD	; 253
    1e11:	64 75       	andi	r22, 0x54	; 84
    1e13:	6c 65       	ori	r22, 0x5C	; 92
    1e15:	5f 5f       	subi	r21, 0xFF	; 255
    1e17:	03 08       	sbc	r0, r3
    1e19:	00 5f       	subi	r16, 0xF0	; 240
    1e1b:	5f 69       	ori	r21, 0x9F	; 159
    1e1d:	6e 69       	ori	r22, 0x9E	; 158
    1e1f:	74 5f       	subi	r23, 0xF4	; 244
    1e21:	5f 03       	fmul	r21, r23
    1e23:	09 00       	.word	0x0009	; ????
    1e25:	62 79       	andi	r22, 0x92	; 146
    1e27:	74 65       	ori	r23, 0x54	; 84
    1e29:	61 72       	andi	r22, 0x21	; 33
    1e2b:	72 61       	ori	r23, 0x12	; 18
    1e2d:	79 03       	fmul	r23, r17
    1e2f:	02 00       	.word	0x0002	; ????
    1e31:	06 01       	movw	r0, r12
    1e33:	03 1a       	sub	r0, r19
    1e35:	00 6b       	ori	r16, 0xB0	; 176
    1e37:	65 72       	andi	r22, 0x25	; 37
    1e39:	6e 65       	ori	r22, 0x5E	; 94
    1e3b:	6c 2f       	mov	r22, r28
    1e3d:	70 79       	andi	r23, 0x90	; 144
    1e3f:	74 68       	ori	r23, 0x84	; 132
    1e41:	6f 6e       	ori	r22, 0xEF	; 239
    1e43:	2f 6c       	ori	r18, 0xCF	; 207
    1e45:	69 62       	ori	r22, 0x29	; 41
    1e47:	2f 5f       	subi	r18, 0xFF	; 255
    1e49:	5f 62       	ori	r21, 0x2F	; 47
    1e4b:	69 2e       	mov	r6, r25
    1e4d:	70 79       	andi	r23, 0x90	; 144
    1e4f:	00 04       	cpc	r0, r0
    1e51:	01 0b       	sbc	r16, r17
    1e53:	02 1d       	adc	r16, r2
    1e55:	00 04       	cpc	r0, r0
    1e57:	00 65       	ori	r16, 0x50	; 80
    1e59:	00 00       	nop
    1e5b:	5a 01       	movw	r10, r20
    1e5d:	00 64       	ori	r16, 0x40	; 64
    1e5f:	00 00       	nop
    1e61:	84 00       	.word	0x0084	; ????
    1e63:	00 5a       	subi	r16, 0xA0	; 160
    1e65:	02 00       	.word	0x0002	; ????
    1e67:	52 53       	subi	r21, 0x32	; 50
    1e69:	00 04       	cpc	r0, r0
    1e6b:	00 04       	cpc	r0, r0
    1e6d:	00 64       	ori	r16, 0x40	; 64
    1e6f:	00 00       	nop
    1e71:	84 00       	.word	0x0084	; ????
    1e73:	00 5a       	subi	r16, 0xA0	; 160
    1e75:	00 00       	nop
    1e77:	64 01       	movw	r12, r8
    1e79:	00 84       	ldd	r0, Z+8	; 0x08
    1e7b:	00 00       	nop
    1e7d:	5a 01       	movw	r10, r20
    1e7f:	00 64       	ori	r16, 0x40	; 64
    1e81:	02 00       	.word	0x0002	; ????
    1e83:	84 00       	.word	0x0084	; ????
    1e85:	00 5a       	subi	r16, 0xA0	; 160
    1e87:	02 00       	.word	0x0002	; ????
    1e89:	64 03       	mulsu	r22, r20
    1e8b:	00 84       	ldd	r0, Z+8	; 0x08
    1e8d:	00 00       	nop
    1e8f:	5a 03       	fmul	r21, r18
    1e91:	00 64       	ori	r16, 0x40	; 64
    1e93:	04 00       	.word	0x0004	; ????
    1e95:	84 00       	.word	0x0084	; ????
    1e97:	00 5a       	subi	r16, 0xA0	; 160
    1e99:	04 00       	.word	0x0004	; ????
    1e9b:	64 05       	cpc	r22, r4
    1e9d:	00 84       	ldd	r0, Z+8	; 0x08
    1e9f:	00 00       	nop
    1ea1:	5a 05       	cpc	r21, r10
    1ea3:	00 64       	ori	r16, 0x40	; 64
    1ea5:	06 00       	.word	0x0006	; ????
    1ea7:	84 00       	.word	0x0084	; ????
    1ea9:	00 5a       	subi	r16, 0xA0	; 160
    1eab:	06 00       	.word	0x0006	; ????
    1ead:	64 07       	cpc	r22, r20
    1eaf:	00 84       	ldd	r0, Z+8	; 0x08
    1eb1:	00 00       	nop
    1eb3:	5a 07       	cpc	r21, r26
    1eb5:	00 64       	ori	r16, 0x40	; 64
    1eb7:	08 00       	.word	0x0008	; ????
    1eb9:	84 00       	.word	0x0084	; ????
    1ebb:	00 5a       	subi	r16, 0xA0	; 160
    1ebd:	08 00       	.word	0x0008	; ????
    1ebf:	64 09       	sbc	r22, r4
    1ec1:	00 84       	ldd	r0, Z+8	; 0x08
    1ec3:	00 00       	nop
    1ec5:	5a 09       	sbc	r21, r10
    1ec7:	00 64       	ori	r16, 0x40	; 64
    1ec9:	0a 00       	.word	0x000a	; ????
    1ecb:	84 00       	.word	0x0084	; ????
    1ecd:	00 5a       	subi	r16, 0xA0	; 160
    1ecf:	0a 00       	.word	0x000a	; ????
    1ed1:	64 0b       	sbc	r22, r20
    1ed3:	00 84       	ldd	r0, Z+8	; 0x08
    1ed5:	00 00       	nop
    1ed7:	5a 0b       	sbc	r21, r26
    1ed9:	00 64       	ori	r16, 0x40	; 64
    1edb:	0c 00       	.word	0x000c	; ????
    1edd:	84 00       	.word	0x0084	; ????
    1edf:	00 5a       	subi	r16, 0xA0	; 160
    1ee1:	0c 00       	.word	0x000c	; ????
    1ee3:	64 0d       	add	r22, r4
    1ee5:	00 84       	ldd	r0, Z+8	; 0x08
    1ee7:	00 00       	nop
    1ee9:	5a 0d       	add	r21, r10
    1eeb:	00 64       	ori	r16, 0x40	; 64
    1eed:	0e 00       	.word	0x000e	; ????
    1eef:	84 00       	.word	0x0084	; ????
    1ef1:	00 5a       	subi	r16, 0xA0	; 160
    1ef3:	0e 00       	.word	0x000e	; ????
    1ef5:	64 0f       	add	r22, r20
    1ef7:	00 84       	ldd	r0, Z+8	; 0x08
    1ef9:	00 00       	nop
    1efb:	5a 0f       	add	r21, r26
    1efd:	00 64       	ori	r16, 0x40	; 64
    1eff:	10 00       	.word	0x0010	; ????
    1f01:	5a 10       	cpse	r5, r10
    1f03:	00 64       	ori	r16, 0x40	; 64
    1f05:	11 00       	.word	0x0011	; ????
    1f07:	64 1e       	adc	r6, r20
    1f09:	00 64       	ori	r16, 0x40	; 64
    1f0b:	12 00       	.word	0x0012	; ????
    1f0d:	84 00       	.word	0x0084	; ????
    1f0f:	00 83       	st	Z, r16
    1f11:	00 00       	nop
    1f13:	59 5a       	subi	r21, 0xA9	; 169
    1f15:	11 00       	.word	0x0011	; ????
    1f17:	64 13       	cpse	r22, r20
    1f19:	00 65       	ori	r16, 0x50	; 80
    1f1b:	11 00       	.word	0x0011	; ????
    1f1d:	66 01       	movw	r12, r12
    1f1f:	00 64       	ori	r16, 0x40	; 64
    1f21:	14 00       	.word	0x0014	; ????
    1f23:	84 00       	.word	0x0084	; ????
    1f25:	00 83       	st	Z, r16
    1f27:	00 00       	nop
    1f29:	59 5a       	subi	r21, 0xA9	; 169
    1f2b:	12 00       	.word	0x0012	; ????
    1f2d:	64 15       	cp	r22, r4
    1f2f:	00 65       	ori	r16, 0x50	; 80
    1f31:	12 00       	.word	0x0012	; ????
    1f33:	66 01       	movw	r12, r12
    1f35:	00 64       	ori	r16, 0x40	; 64
    1f37:	16 00       	.word	0x0016	; ????
    1f39:	84 00       	.word	0x0084	; ????
    1f3b:	00 83       	st	Z, r16
    1f3d:	00 00       	nop
    1f3f:	59 5a       	subi	r21, 0xA9	; 169
    1f41:	13 00       	.word	0x0013	; ????
    1f43:	64 17       	cp	r22, r20
    1f45:	00 65       	ori	r16, 0x50	; 80
    1f47:	13 00       	.word	0x0013	; ????
    1f49:	5f 14       	cp	r5, r15
    1f4b:	00 64       	ori	r16, 0x40	; 64
    1f4d:	18 00       	.word	0x0018	; ????
    1f4f:	65 11       	cpse	r22, r5
    1f51:	00 66       	ori	r16, 0x60	; 96
    1f53:	01 00       	.word	0x0001	; ????
    1f55:	64 19       	sub	r22, r4
    1f57:	00 84       	ldd	r0, Z+8	; 0x08
    1f59:	00 00       	nop
    1f5b:	83 00       	.word	0x0083	; ????
    1f5d:	00 59       	subi	r16, 0x90	; 144
    1f5f:	5a 15       	cp	r21, r10
    1f61:	00 64       	ori	r16, 0x40	; 64
    1f63:	1a 00       	.word	0x001a	; ????
    1f65:	84 00       	.word	0x0084	; ????
    1f67:	00 5a       	subi	r16, 0xA0	; 160
    1f69:	16 00       	.word	0x0016	; ????
    1f6b:	64 1b       	sub	r22, r20
    1f6d:	00 65       	ori	r16, 0x50	; 80
    1f6f:	11 00       	.word	0x0011	; ????
    1f71:	66 01       	movw	r12, r12
    1f73:	00 64       	ori	r16, 0x40	; 64
    1f75:	1c 00       	.word	0x001c	; ????
    1f77:	84 00       	.word	0x0084	; ????
    1f79:	00 83       	st	Z, r16
    1f7b:	00 00       	nop
    1f7d:	59 5a       	subi	r21, 0xA9	; 169
    1f7f:	17 00       	.word	0x0017	; ????
    1f81:	68 00       	.word	0x0068	; ????
    1f83:	00 5a       	subi	r16, 0xA0	; 160
    1f85:	18 00       	.word	0x0018	; ????
    1f87:	64 1d       	adc	r22, r4
    1f89:	00 53       	subi	r16, 0x30	; 48
    1f8b:	0a 42       	sbci	r16, 0x2A	; 42
    1f8d:	03 00       	.word	0x0003	; ????
    1f8f:	40 03       	mulsu	r20, r16
    1f91:	00 00       	nop
    1f93:	0c 00       	.word	0x000c	; ????
    1f95:	04 08       	sbc	r0, r4
    1f97:	03 08       	sbc	r0, r3
    1f99:	00 5f       	subi	r16, 0xF0	; 240
    1f9b:	5f 6e       	ori	r21, 0xEF	; 239
    1f9d:	61 6d       	ori	r22, 0xD1	; 209
    1f9f:	65 5f       	subi	r22, 0xF5	; 245
    1fa1:	5f 03       	fmul	r21, r23
    1fa3:	08 00       	.word	0x0008	; ????
    1fa5:	5f 41       	sbci	r21, 0x1F	; 31
    1fa7:	75 74       	andi	r23, 0x45	; 69
    1fa9:	6f 62       	ori	r22, 0x2F	; 47
    1fab:	6f 78       	andi	r22, 0x8F	; 143
    1fad:	03 05       	cpc	r16, r3
    1faf:	00 63       	ori	r16, 0x30	; 48
    1fb1:	6c 65       	ori	r22, 0x5C	; 92
    1fb3:	61 72       	andi	r22, 0x21	; 33
    1fb5:	03 04       	cpc	r0, r3
    1fb7:	00 6b       	ori	r16, 0xB0	; 176
    1fb9:	65 79       	andi	r22, 0x95	; 149
    1fbb:	73 03       	mulsu	r23, r19
    1fbd:	07 00       	.word	0x0007	; ????
    1fbf:	68 61       	ori	r22, 0x18	; 24
    1fc1:	73 5f       	subi	r23, 0xF3	; 243
    1fc3:	6b 65       	ori	r22, 0x5B	; 91
    1fc5:	79 03       	fmul	r23, r17
    1fc7:	06 00       	.word	0x0006	; ????
    1fc9:	76 61       	ori	r23, 0x16	; 22
    1fcb:	6c 75       	andi	r22, 0x5C	; 92
    1fcd:	65 73       	andi	r22, 0x35	; 53
    1fcf:	03 06       	cpc	r0, r19
    1fd1:	00 75       	andi	r16, 0x50	; 80
    1fd3:	70 64       	ori	r23, 0x40	; 64
    1fd5:	61 74       	andi	r22, 0x41	; 65
    1fd7:	65 03       	mulsu	r22, r21
    1fd9:	04 00       	.word	0x0004	; ????
    1fdb:	64 69       	ori	r22, 0x94	; 148
    1fdd:	63 74       	andi	r22, 0x43	; 67
    1fdf:	03 0c       	add	r0, r3
    1fe1:	00 06       	cpc	r0, r16
    1fe3:	03 13       	cpse	r16, r19
    1fe5:	0e 09       	sbc	r16, r14
    1fe7:	18 09       	sbc	r17, r8
    1fe9:	2b 09       	sbc	r18, r11
    1feb:	04 09       	sbc	r16, r4
    1fed:	2b 03       	fmul	r18, r19
    1fef:	1a 00       	.word	0x001a	; ????
    1ff1:	6b 65       	ori	r22, 0x5B	; 91
    1ff3:	72 6e       	ori	r23, 0xE2	; 226
    1ff5:	65 6c       	ori	r22, 0xC5	; 197
    1ff7:	2f 70       	andi	r18, 0x0F	; 15
    1ff9:	79 74       	andi	r23, 0x49	; 73
    1ffb:	68 6f       	ori	r22, 0xF8	; 248
    1ffd:	6e 2f       	mov	r22, r30
    1fff:	6c 69       	ori	r22, 0x9C	; 156
    2001:	62 2f       	mov	r22, r18
    2003:	64 69       	ori	r22, 0x94	; 148
    2005:	63 74       	andi	r22, 0x43	; 67
    2007:	2e 70       	andi	r18, 0x0E	; 14
    2009:	79 00       	.word	0x0079	; ????
    200b:	04 0a       	sbc	r0, r20
    200d:	03 04       	cpc	r0, r3
    200f:	00 64       	ori	r16, 0x40	; 64
    2011:	69 63       	ori	r22, 0x39	; 57
    2013:	74 03       	mulsu	r23, r20
    2015:	08 00       	.word	0x0008	; ????
    2017:	5f 41       	sbci	r21, 0x1F	; 31
    2019:	75 74       	andi	r23, 0x45	; 69
    201b:	6f 62       	ori	r22, 0x2F	; 47
    201d:	6f 78       	andi	r22, 0x8F	; 143
    201f:	0a 08       	sbc	r0, r10
    2021:	02 00       	.word	0x0002	; ????
    2023:	42 01       	movw	r8, r4
    2025:	00 00       	nop
    2027:	0f 00       	.word	0x000f	; ????
    2029:	04 07       	cpc	r16, r20
    202b:	03 08       	sbc	r0, r3
    202d:	00 5f       	subi	r16, 0xF0	; 240
    202f:	5f 6e       	ori	r21, 0xEF	; 239
    2031:	61 6d       	ori	r22, 0xD1	; 209
    2033:	65 5f       	subi	r22, 0xF5	; 245
    2035:	5f 03       	fmul	r21, r23
    2037:	0a 00       	.word	0x000a	; ????
    2039:	5f 5f       	subi	r21, 0xFF	; 255
    203b:	6d 6f       	ori	r22, 0xFD	; 253
    203d:	64 75       	andi	r22, 0x54	; 84
    203f:	6c 65       	ori	r22, 0x5C	; 92
    2041:	5f 5f       	subi	r21, 0xFF	; 255
    2043:	03 05       	cpc	r16, r3
    2045:	00 63       	ori	r16, 0x30	; 48
    2047:	6c 65       	ori	r22, 0x5C	; 92
    2049:	61 72       	andi	r22, 0x21	; 33
    204b:	03 04       	cpc	r0, r3
    204d:	00 6b       	ori	r16, 0xB0	; 176
    204f:	65 79       	andi	r22, 0x95	; 149
    2051:	73 03       	mulsu	r23, r19
    2053:	07 00       	.word	0x0007	; ????
    2055:	68 61       	ori	r22, 0x18	; 24
    2057:	73 5f       	subi	r23, 0xF3	; 243
    2059:	6b 65       	ori	r22, 0x5B	; 91
    205b:	79 03       	fmul	r23, r17
    205d:	06 00       	.word	0x0006	; ????
    205f:	76 61       	ori	r23, 0x16	; 22
    2061:	6c 75       	andi	r22, 0x5C	; 92
    2063:	65 73       	andi	r22, 0x35	; 53
    2065:	03 08       	sbc	r0, r3
    2067:	00 5f       	subi	r16, 0xF0	; 240
    2069:	41 75       	andi	r20, 0x51	; 81
    206b:	74 6f       	ori	r23, 0xF4	; 244
    206d:	62 6f       	ori	r22, 0xF2	; 242
    206f:	78 03       	fmul	r23, r16
    2071:	08 00       	.word	0x0008	; ????
    2073:	06 01       	movw	r0, r12
    2075:	09 03       	fmul	r16, r17
    2077:	09 03       	fmul	r16, r17
    2079:	09 03       	fmul	r16, r17
    207b:	03 1a       	sub	r0, r19
    207d:	00 6b       	ori	r16, 0xB0	; 176
    207f:	65 72       	andi	r22, 0x25	; 37
    2081:	6e 65       	ori	r22, 0x5E	; 94
    2083:	6c 2f       	mov	r22, r28
    2085:	70 79       	andi	r23, 0x90	; 144
    2087:	74 68       	ori	r23, 0x84	; 132
    2089:	6f 6e       	ori	r22, 0xEF	; 239
    208b:	2f 6c       	ori	r18, 0xCF	; 207
    208d:	69 62       	ori	r22, 0x29	; 41
    208f:	2f 64       	ori	r18, 0x4F	; 79
    2091:	69 63       	ori	r22, 0x39	; 57
    2093:	74 2e       	mov	r7, r20
    2095:	70 79       	andi	r23, 0x90	; 144
    2097:	00 04       	cpc	r0, r0
    2099:	04 0a       	sbc	r0, r20
    209b:	56 00       	.word	0x0056	; ????
    209d:	01 43       	sbci	r16, 0x31	; 49
    209f:	02 01       	movw	r0, r4
    20a1:	00 10       	cpse	r0, r0
    20a3:	00 04       	cpc	r0, r0
    20a5:	03 03       	mulsu	r16, r19
    20a7:	05 00       	.word	0x0005	; ????
    20a9:	63 6c       	ori	r22, 0xC3	; 195
    20ab:	65 61       	ori	r22, 0x15	; 21
    20ad:	72 03       	mulsu	r23, r18
    20af:	03 00       	.word	0x0003	; ????
    20b1:	6f 62       	ori	r22, 0x2F	; 47
    20b3:	6a 03       	fmul	r22, r18
    20b5:	05 00       	.word	0x0005	; ????
    20b7:	63 6c       	ori	r22, 0xC3	; 195
    20b9:	65 61       	ori	r22, 0x15	; 21
    20bb:	72 03       	mulsu	r23, r18
    20bd:	02 00       	.word	0x0002	; ????
    20bf:	00 01       	movw	r0, r0
    20c1:	03 1a       	sub	r0, r19
    20c3:	00 6b       	ori	r16, 0xB0	; 176
    20c5:	65 72       	andi	r22, 0x25	; 37
    20c7:	6e 65       	ori	r22, 0x5E	; 94
    20c9:	6c 2f       	mov	r22, r28
    20cb:	70 79       	andi	r23, 0x90	; 144
    20cd:	74 68       	ori	r23, 0x84	; 132
    20cf:	6f 6e       	ori	r22, 0xEF	; 239
    20d1:	2f 6c       	ori	r18, 0xCF	; 207
    20d3:	69 62       	ori	r22, 0x29	; 41
    20d5:	2f 64       	ori	r18, 0x4F	; 79
    20d7:	69 63       	ori	r22, 0x39	; 57
    20d9:	74 2e       	mov	r7, r20
    20db:	70 79       	andi	r23, 0x90	; 144
    20dd:	00 04       	cpc	r0, r0
    20df:	01 00       	.word	0x0001	; ????
    20e1:	04 00       	.word	0x0004	; ????
    20e3:	74 00       	.word	0x0074	; ????
    20e5:	00 7c       	andi	r16, 0xC0	; 192
    20e7:	00 00       	nop
    20e9:	69 01       	movw	r12, r18
    20eb:	00 83       	st	Z, r16
    20ed:	01 00       	.word	0x0001	; ????
    20ef:	53 0a       	sbc	r5, r19
    20f1:	54 00       	.word	0x0054	; ????
    20f3:	01 43       	sbci	r16, 0x31	; 49
    20f5:	02 01       	movw	r0, r4
    20f7:	00 13       	cpse	r16, r16
    20f9:	00 04       	cpc	r0, r0
    20fb:	03 03       	mulsu	r16, r19
    20fd:	04 00       	.word	0x0004	; ????
    20ff:	6b 65       	ori	r22, 0x5B	; 91
    2101:	79 73       	andi	r23, 0x39	; 57
    2103:	03 03       	mulsu	r16, r19
    2105:	00 6f       	ori	r16, 0xF0	; 240
    2107:	62 6a       	ori	r22, 0xA2	; 162
    2109:	03 04       	cpc	r0, r3
    210b:	00 6b       	ori	r16, 0xB0	; 176
    210d:	65 79       	andi	r22, 0x95	; 149
    210f:	73 03       	mulsu	r23, r19
    2111:	02 00       	.word	0x0002	; ????
    2113:	00 01       	movw	r0, r0
    2115:	03 1a       	sub	r0, r19
    2117:	00 6b       	ori	r16, 0xB0	; 176
    2119:	65 72       	andi	r22, 0x25	; 37
    211b:	6e 65       	ori	r22, 0x5E	; 94
    211d:	6c 2f       	mov	r22, r28
    211f:	70 79       	andi	r23, 0x90	; 144
    2121:	74 68       	ori	r23, 0x84	; 132
    2123:	6f 6e       	ori	r22, 0xEF	; 239
    2125:	2f 6c       	ori	r18, 0xCF	; 207
    2127:	69 62       	ori	r22, 0x29	; 41
    2129:	2f 64       	ori	r18, 0x4F	; 79
    212b:	69 63       	ori	r22, 0x39	; 57
    212d:	74 2e       	mov	r7, r20
    212f:	70 79       	andi	r23, 0x90	; 144
    2131:	00 04       	cpc	r0, r0
    2133:	01 00       	.word	0x0001	; ????
    2135:	04 00       	.word	0x0004	; ????
    2137:	74 00       	.word	0x0074	; ????
    2139:	00 7c       	andi	r16, 0xC0	; 192
    213b:	00 00       	nop
    213d:	69 01       	movw	r12, r18
    213f:	00 83       	st	Z, r16
    2141:	01 00       	.word	0x0001	; ????
    2143:	53 0a       	sbc	r5, r19
    2145:	5d 00       	.word	0x005d	; ????
    2147:	02 43       	sbci	r16, 0x32	; 50
    2149:	03 02       	muls	r16, r19
    214b:	00 16       	cp	r0, r16
    214d:	00 04       	cpc	r0, r0
    214f:	03 03       	mulsu	r16, r19
    2151:	07 00       	.word	0x0007	; ????
    2153:	68 61       	ori	r22, 0x18	; 24
    2155:	73 5f       	subi	r23, 0xF3	; 243
    2157:	6b 65       	ori	r22, 0x5B	; 91
    2159:	79 03       	fmul	r23, r17
    215b:	03 00       	.word	0x0003	; ????
    215d:	6f 62       	ori	r22, 0x2F	; 47
    215f:	6a 03       	fmul	r22, r18
    2161:	07 00       	.word	0x0007	; ????
    2163:	68 61       	ori	r22, 0x18	; 24
    2165:	73 5f       	subi	r23, 0xF3	; 243
    2167:	6b 65       	ori	r22, 0x5B	; 91
    2169:	79 03       	fmul	r23, r17
    216b:	02 00       	.word	0x0002	; ????
    216d:	00 01       	movw	r0, r0
    216f:	03 1a       	sub	r0, r19
    2171:	00 6b       	ori	r16, 0xB0	; 176
    2173:	65 72       	andi	r22, 0x25	; 37
    2175:	6e 65       	ori	r22, 0x5E	; 94
    2177:	6c 2f       	mov	r22, r28
    2179:	70 79       	andi	r23, 0x90	; 144
    217b:	74 68       	ori	r23, 0x84	; 132
    217d:	6f 6e       	ori	r22, 0xEF	; 239
    217f:	2f 6c       	ori	r18, 0xCF	; 207
    2181:	69 62       	ori	r22, 0x29	; 41
    2183:	2f 64       	ori	r18, 0x4F	; 79
    2185:	69 63       	ori	r22, 0x39	; 57
    2187:	74 2e       	mov	r7, r20
    2189:	70 79       	andi	r23, 0x90	; 144
    218b:	00 04       	cpc	r0, r0
    218d:	01 00       	.word	0x0001	; ????
    218f:	04 00       	.word	0x0004	; ????
    2191:	74 00       	.word	0x0074	; ????
    2193:	00 7c       	andi	r16, 0xC0	; 192
    2195:	00 00       	nop
    2197:	69 01       	movw	r12, r18
    2199:	00 7c       	andi	r16, 0xC0	; 192
    219b:	01 00       	.word	0x0001	; ????
    219d:	83 02       	muls	r24, r19
    219f:	00 53       	subi	r16, 0x30	; 48
    21a1:	0a 58       	subi	r16, 0x8A	; 138
    21a3:	00 01       	movw	r0, r0
    21a5:	43 02       	muls	r20, r19
    21a7:	01 00       	.word	0x0001	; ????
    21a9:	19 00       	.word	0x0019	; ????
    21ab:	04 03       	mulsu	r16, r20
    21ad:	03 06       	cpc	r0, r19
    21af:	00 76       	andi	r16, 0x60	; 96
    21b1:	61 6c       	ori	r22, 0xC1	; 193
    21b3:	75 65       	ori	r23, 0x55	; 85
    21b5:	73 03       	mulsu	r23, r19
    21b7:	03 00       	.word	0x0003	; ????
    21b9:	6f 62       	ori	r22, 0x2F	; 47
    21bb:	6a 03       	fmul	r22, r18
    21bd:	06 00       	.word	0x0006	; ????
    21bf:	76 61       	ori	r23, 0x16	; 22
    21c1:	6c 75       	andi	r22, 0x5C	; 92
    21c3:	65 73       	andi	r22, 0x35	; 53
    21c5:	03 02       	muls	r16, r19
    21c7:	00 00       	nop
    21c9:	01 03       	mulsu	r16, r17
    21cb:	1a 00       	.word	0x001a	; ????
    21cd:	6b 65       	ori	r22, 0x5B	; 91
    21cf:	72 6e       	ori	r23, 0xE2	; 226
    21d1:	65 6c       	ori	r22, 0xC5	; 197
    21d3:	2f 70       	andi	r18, 0x0F	; 15
    21d5:	79 74       	andi	r23, 0x49	; 73
    21d7:	68 6f       	ori	r22, 0xF8	; 248
    21d9:	6e 2f       	mov	r22, r30
    21db:	6c 69       	ori	r22, 0x9C	; 156
    21dd:	62 2f       	mov	r22, r18
    21df:	64 69       	ori	r22, 0x94	; 148
    21e1:	63 74       	andi	r22, 0x43	; 67
    21e3:	2e 70       	andi	r18, 0x0E	; 14
    21e5:	79 00       	.word	0x0079	; ????
    21e7:	04 01       	movw	r0, r8
    21e9:	00 04       	cpc	r0, r0
    21eb:	00 74       	andi	r16, 0x40	; 64
    21ed:	00 00       	nop
    21ef:	7c 00       	.word	0x007c	; ????
    21f1:	00 69       	ori	r16, 0x90	; 144
    21f3:	01 00       	.word	0x0001	; ????
    21f5:	83 01       	movw	r16, r6
    21f7:	00 53       	subi	r16, 0x30	; 48
    21f9:	04 00       	.word	0x0004	; ????
    21fb:	65 00       	.word	0x0065	; ????
    21fd:	00 5a       	subi	r16, 0xA0	; 160
    21ff:	01 00       	.word	0x0001	; ????
    2201:	64 00       	.word	0x0064	; ????
    2203:	00 84       	ldd	r0, Z+8	; 0x08
    2205:	00 00       	nop
    2207:	5a 02       	muls	r21, r26
    2209:	00 64       	ori	r16, 0x40	; 64
    220b:	01 00       	.word	0x0001	; ????
    220d:	84 00       	.word	0x0084	; ????
    220f:	00 5a       	subi	r16, 0xA0	; 160
    2211:	03 00       	.word	0x0003	; ????
    2213:	64 02       	muls	r22, r20
    2215:	00 84       	ldd	r0, Z+8	; 0x08
    2217:	00 00       	nop
    2219:	5a 04       	cpc	r5, r10
    221b:	00 64       	ori	r16, 0x40	; 64
    221d:	03 00       	.word	0x0003	; ????
    221f:	84 00       	.word	0x0084	; ????
    2221:	00 5a       	subi	r16, 0xA0	; 160
    2223:	05 00       	.word	0x0005	; ????
    2225:	52 53       	subi	r21, 0x32	; 50
    2227:	0b 01       	movw	r0, r22
    2229:	1e 00       	.word	0x001e	; ????
    222b:	0b 01       	movw	r0, r22
    222d:	1f 00       	.word	0x001f	; ????
    222f:	0a 47       	sbci	r16, 0x7A	; 122
    2231:	00 02       	muls	r16, r16
    2233:	43 02       	muls	r20, r19
    2235:	02 00       	.word	0x0002	; ????
    2237:	60 00       	.word	0x0060	; ????
    2239:	04 01       	movw	r0, r8
    223b:	03 07       	cpc	r16, r19
    223d:	00 68       	ori	r16, 0x80	; 128
    223f:	61 73       	andi	r22, 0x31	; 49
    2241:	5f 6b       	ori	r21, 0xBF	; 191
    2243:	65 79       	andi	r22, 0x95	; 149
    2245:	03 02       	muls	r16, r19
    2247:	00 00       	nop
    2249:	01 03       	mulsu	r16, r17
    224b:	1a 00       	.word	0x001a	; ????
    224d:	6b 65       	ori	r22, 0x5B	; 91
    224f:	72 6e       	ori	r23, 0xE2	; 226
    2251:	65 6c       	ori	r22, 0xC5	; 197
    2253:	2f 70       	andi	r18, 0x0F	; 15
    2255:	79 74       	andi	r23, 0x49	; 73
    2257:	68 6f       	ori	r22, 0xF8	; 248
    2259:	6e 2f       	mov	r22, r30
    225b:	6c 69       	ori	r22, 0x9C	; 156
    225d:	62 2f       	mov	r22, r18
    225f:	64 69       	ori	r22, 0x94	; 148
    2261:	63 74       	andi	r22, 0x43	; 67
    2263:	2e 70       	andi	r18, 0x0E	; 14
    2265:	79 00       	.word	0x0079	; ????
    2267:	04 01       	movw	r0, r8
    2269:	00 04       	cpc	r0, r0
    226b:	00 7c       	andi	r16, 0xC0	; 192
    226d:	01 00       	.word	0x0001	; ????
    226f:	7c 00       	.word	0x007c	; ????
    2271:	00 6a       	ori	r16, 0xA0	; 160
    2273:	06 00       	.word	0x0006	; ????
    2275:	53 0b       	sbc	r21, r19
    2277:	01 20       	and	r0, r1
    2279:	00 0b       	sbc	r16, r16
    227b:	02 21       	and	r16, r2
    227d:	00 00       	nop
    227f:	04 00       	.word	0x0004	; ????
    2281:	04 00       	.word	0x0004	; ????
    2283:	64 00       	.word	0x0064	; ????
    2285:	00 5a       	subi	r16, 0xA0	; 160
    2287:	00 00       	nop
    2289:	64 01       	movw	r12, r8
    228b:	00 64       	ori	r16, 0x40	; 64
    228d:	09 00       	.word	0x0009	; ????
    228f:	64 02       	muls	r22, r20
    2291:	00 84       	ldd	r0, Z+8	; 0x08
    2293:	00 00       	nop
    2295:	83 00       	.word	0x0083	; ????
    2297:	00 59       	subi	r16, 0x90	; 144
    2299:	5a 01       	movw	r10, r20
    229b:	00 64       	ori	r16, 0x40	; 64
    229d:	03 00       	.word	0x0003	; ????
    229f:	84 00       	.word	0x0084	; ????
    22a1:	00 5a       	subi	r16, 0xA0	; 160
